Archive member included to satisfy reference by file (symbol)

c:/program files/microchip/xc32/v4.45/bin/bin/../../lib/gcc/pic32c/8.3.1/../../../../pic32c/lib/thumb/v6-m/nofp\libpic32c.a(data_init.o)
                              build/default/production/_ext/1171490990/startup_xc32.o (__pic32c_data_initialization)
c:/program files/microchip/xc32/v4.45/bin/bin/../../lib/gcc/pic32c/8.3.1/../../../../pic32c/lib/thumb/v6-m/nofp\libc-size-musl.a(memcpy.o)
                              build/default/production/_ext/1593096446/plib_nvmctrl.o (memcpy)
c:/program files/microchip/xc32/v4.45/bin/bin/../../lib/gcc/pic32c/8.3.1/../../../../pic32c/lib/thumb/v6-m/nofp\libc-size-musl.a(strlen.o)
                              build/default/production/AppTasks.o (strlen)
c:/program files/microchip/xc32/v4.45/bin/bin/../../lib/gcc/pic32c/8.3.1/../../../../pic32c/lib/thumb/v6-m/nofp\libc-musl.a(__libc_start_main.o)
                              build/default/production/_ext/1171490990/startup_xc32.o (__libc_init_array)
c:/program files/microchip/xc32/v4.45/bin/bin/../../lib/gcc/pic32c/8.3.1/../../../../pic32c/lib/thumb/v6-m/nofp\libc-musl.a(libc.o)
                              c:/program files/microchip/xc32/v4.45/bin/bin/../../lib/gcc/pic32c/8.3.1/../../../../pic32c/lib/thumb/v6-m/nofp\libc-musl.a(__libc_start_main.o) (__progname_full)
c:/program files/microchip/xc32/v4.45/bin/bin/../../lib/gcc/pic32c/8.3.1/../../../../pic32c/lib/thumb/v6-m/nofp\libc-musl.a(__sio_sprintf_dn.o)
                              (_sprintf_dn)
c:/program files/microchip/xc32/v4.45/bin/bin/../../lib/gcc/pic32c/8.3.1/../../../../pic32c/lib/thumb/v6-m/nofp\libc-musl.a(__fmt_d.o)
                              c:/program files/microchip/xc32/v4.45/bin/bin/../../lib/gcc/pic32c/8.3.1/../../../../pic32c/lib/thumb/v6-m/nofp\libc-musl.a(__sio_sprintf_dn.o) (__fmt_d_needed)
c:/program files/microchip/xc32/v4.45/bin/bin/../../lib/gcc/pic32c/8.3.1/../../../../pic32c/lib/thumb/v6-m/nofp\libc-musl.a(__pop_int.o)
                              c:/program files/microchip/xc32/v4.45/bin/bin/../../lib/gcc/pic32c/8.3.1/../../../../pic32c/lib/thumb/v6-m/nofp\libc-musl.a(__sio_sprintf_dn.o) (__pop_int_needed)
c:/program files/microchip/xc32/v4.45/bin/bin/../../lib/gcc/pic32c/8.3.1/../../../../pic32c/lib/thumb/v6-m/nofp\libc-musl.a(__pop_ptr.o)
                              c:/program files/microchip/xc32/v4.45/bin/bin/../../lib/gcc/pic32c/8.3.1/../../../../pic32c/lib/thumb/v6-m/nofp\libc-musl.a(__sio_sprintf_dn.o) (__pop_ptr_needed)
c:/program files/microchip/xc32/v4.45/bin/bin/../../lib/gcc/pic32c/8.3.1/../../../../pic32c/lib/thumb/v6-m/nofp\libc-musl.a(__printf_core.o)
                              c:/program files/microchip/xc32/v4.45/bin/bin/../../lib/gcc/pic32c/8.3.1/../../../../pic32c/lib/thumb/v6-m/nofp\libc-musl.a(__fmt_d.o) (__pad)
c:/program files/microchip/xc32/v4.45/bin/bin/../../lib/gcc/pic32c/8.3.1/../../../../pic32c/lib/thumb/v6-m/nofp\libc-musl.a(atoi.o)
                              c:/program files/microchip/xc32/v4.45/bin/bin/../../lib/gcc/pic32c/8.3.1/../../../../pic32c/lib/thumb/v6-m/nofp\libc-musl.a(__printf_core.o) (atoi)
c:/program files/microchip/xc32/v4.45/bin/bin/../../lib/gcc/pic32c/8.3.1/../../../../pic32c/lib/thumb/v6-m/nofp\libc-musl.a(tolower.o)
                              c:/program files/microchip/xc32/v4.45/bin/bin/../../lib/gcc/pic32c/8.3.1/../../../../pic32c/lib/thumb/v6-m/nofp\libc-musl.a(__printf_core.o) (tolower)
c:/program files/microchip/xc32/v4.45/bin/bin/../../lib/gcc/pic32c/8.3.1/../../../../pic32c/lib/thumb/v6-m/nofp\libc-musl.a(__environ.o)
                              c:/program files/microchip/xc32/v4.45/bin/bin/../../lib/gcc/pic32c/8.3.1/../../../../pic32c/lib/thumb/v6-m/nofp\libc-musl.a(__libc_start_main.o) (__environ)
c:/program files/microchip/xc32/v4.45/bin/bin/../../lib/gcc/pic32c/8.3.1/../../../../pic32c/lib/thumb/v6-m/nofp\libc-musl.a(__errno_location.o)
                              c:/program files/microchip/xc32/v4.45/bin/bin/../../lib/gcc/pic32c/8.3.1/../../../../pic32c/lib/thumb/v6-m/nofp\libc-musl.a(__printf_core.o) (__errno_val)
c:/program files/microchip/xc32/v4.45/bin/bin/../../lib/gcc/pic32c/8.3.1/../../../../pic32c/lib/thumb/v6-m/nofp\libc-musl.a(__int_vsprintf.o)
                              c:/program files/microchip/xc32/v4.45/bin/bin/../../lib/gcc/pic32c/8.3.1/../../../../pic32c/lib/thumb/v6-m/nofp\libc-musl.a(__sio_sprintf_dn.o) (__vsprintf)
c:/program files/microchip/xc32/v4.45/bin/bin/../../lib/gcc/pic32c/8.3.1/../../../../pic32c/lib/thumb/v6-m/nofp\libc-musl.a(__cvt_u.o)
                              c:/program files/microchip/xc32/v4.45/bin/bin/../../lib/gcc/pic32c/8.3.1/../../../../pic32c/lib/thumb/v6-m/nofp\libc-musl.a(__fmt_d.o) (__cvt_u)
c:/program files/microchip/xc32/v4.45/bin/bin/../../lib/gcc/pic32c/8.3.1/../../../../pic32c/lib/thumb/v6-m/nofp\libc-musl.a(__pop_float.o)
                              c:/program files/microchip/xc32/v4.45/bin/bin/../../lib/gcc/pic32c/8.3.1/../../../../pic32c/lib/thumb/v6-m/nofp\libc-musl.a(__printf_core.o) (__pop_float)
c:/program files/microchip/xc32/v4.45/bin/bin/../../lib/gcc/pic32c/8.3.1/../../../../pic32c/lib/thumb/v6-m/nofp\libc-musl.a(__int_vsnprintf.o)
                              c:/program files/microchip/xc32/v4.45/bin/bin/../../lib/gcc/pic32c/8.3.1/../../../../pic32c/lib/thumb/v6-m/nofp\libc-musl.a(__int_vsprintf.o) (__vsnprintf)
c:/program files/microchip/xc32/v4.45/bin/bin/../../lib/gcc/pic32c/8.3.1/../../../../pic32c/lib/thumb/v6-m/nofp\libc-musl.a(__int_vfprintf.o)
                              c:/program files/microchip/xc32/v4.45/bin/bin/../../lib/gcc/pic32c/8.3.1/../../../../pic32c/lib/thumb/v6-m/nofp\libc-musl.a(__int_vsnprintf.o) (__vfprintf)
c:/program files/microchip/xc32/v4.45/bin/bin/../../lib/gcc/pic32c/8.3.1/thumb/v6-m/nofp\libgcc.a(_aeabi_uldivmod.o)
                              build/default/production/_ext/504274921/plib_sercom5_usart.o (__aeabi_uldivmod)
c:/program files/microchip/xc32/v4.45/bin/bin/../../lib/gcc/pic32c/8.3.1/thumb/v6-m/nofp\libgcc.a(_muldi3.o)
                              build/default/production/_ext/504274921/plib_sercom5_usart.o (__aeabi_lmul)
c:/program files/microchip/xc32/v4.45/bin/bin/../../lib/gcc/pic32c/8.3.1/thumb/v6-m/nofp\libgcc.a(_udivmoddi4.o)
                              c:/program files/microchip/xc32/v4.45/bin/bin/../../lib/gcc/pic32c/8.3.1/thumb/v6-m/nofp\libgcc.a(_aeabi_uldivmod.o) (__udivmoddi4)
c:/program files/microchip/xc32/v4.45/bin/bin/../../lib/gcc/pic32c/8.3.1/thumb/v6-m/nofp\libgcc.a(_dvmd_tls.o)
                              c:/program files/microchip/xc32/v4.45/bin/bin/../../lib/gcc/pic32c/8.3.1/thumb/v6-m/nofp\libgcc.a(_aeabi_uldivmod.o) (__aeabi_ldiv0)
c:/program files/microchip/xc32/v4.45/bin/bin/../../lib/gcc/pic32c/8.3.1/thumb/v6-m/nofp\libgcc.a(_lshrdi3.o)
                              c:/program files/microchip/xc32/v4.45/bin/bin/../../lib/gcc/pic32c/8.3.1/thumb/v6-m/nofp\libgcc.a(_udivmoddi4.o) (__aeabi_llsr)
c:/program files/microchip/xc32/v4.45/bin/bin/../../lib/gcc/pic32c/8.3.1/thumb/v6-m/nofp\libgcc.a(_ashldi3.o)
                              c:/program files/microchip/xc32/v4.45/bin/bin/../../lib/gcc/pic32c/8.3.1/thumb/v6-m/nofp\libgcc.a(_udivmoddi4.o) (__aeabi_llsl)
c:/program files/microchip/xc32/v4.45/bin/bin/../../lib/gcc/pic32c/8.3.1/thumb/v6-m/nofp\libgcc.a(_clzdi2.o)
                              c:/program files/microchip/xc32/v4.45/bin/bin/../../lib/gcc/pic32c/8.3.1/thumb/v6-m/nofp\libgcc.a(_udivmoddi4.o) (__clzdi2)
c:/program files/microchip/xc32/v4.45/bin/bin/../../lib/gcc/pic32c/8.3.1/thumb/v6-m/nofp\libgcc.a(_clzsi2.o)
                              c:/program files/microchip/xc32/v4.45/bin/bin/../../lib/gcc/pic32c/8.3.1/thumb/v6-m/nofp\libgcc.a(_clzdi2.o) (__clzsi2)
c:/program files/microchip/xc32/v4.45/bin/bin/../../lib/gcc/pic32c/8.3.1/../../../../pic32c/lib/thumb/v6-m/nofp\libc-size-musl.a(memset.o)
                              c:/program files/microchip/xc32/v4.45/bin/bin/../../lib/gcc/pic32c/8.3.1/../../../../pic32c/lib/thumb/v6-m/nofp\libc-musl.a(__printf_core.o) (memset)
c:/program files/microchip/xc32/v4.45/bin/bin/../../lib/gcc/pic32c/8.3.1/../../../../pic32c/lib/thumb/v6-m/nofp\libpic32c.a(pic32_data_init_clear.o)
                              (__dinit_clear_needed)
c:/program files/microchip/xc32/v4.45/bin/bin/../../lib/gcc/pic32c/8.3.1/../../../../pic32c/lib/thumb/v6-m/nofp\libpic32c.a(pic32_data_init_copy.o)
                              (__dinit_copy_needed)

Microchip PIC32 Memory-Usage Report

ROM Program-Memory Usage
section                    address  length [bytes]      (dec)  Description
-------                 ----------  -------------------------  -----------
.vectors                         0           0xb8         184   
.text                         0xb8           0x20          32  App's exec code 
.ARM.exidx                    0xd8            0x8           8   
.text.__printf_core           0xe0          0x33c         828   
.text.PORT_Initialize        0x41c          0x104         260   
.text.SERCOM5_USART_Int      0x520          0x104         260   
.text.SERCOM3_USART_Int      0x624          0x104         260   
.text.SERCOM5_USART_RxP      0x728           0xe4         228   
.text.SERCOM3_USART_RxP      0x80c           0xe4         228   
.text                        0x8f0           0xe2         226  App's exec code 
.text.Dummy_App_Func         0x9d2            0x2           2   
.text.__NVIC_SetPriorit      0x9d4           0xdc         220   
.text.SERCOM5_USART_Ini      0xab0           0xd4         212   
.text.SERCOM3_USART_Ini      0xb84           0xd4         212   
.text.InitSystem             0xc58           0xc8         200   
.text.ADC_Initialize         0xd20           0xc4         196   
.text.SERCOM5_USART_Rea      0xde4           0xc4         196   
.text.SERCOM3_USART_Rea      0xea8           0xc4         196   
.dinit                       0xf6c           0xc0         192   
.text.__pop_int             0x102c           0xbe         190   
.text.Dummy_Handler         0x10ea            0x2           2   
.text.SERCOM5_USART_TxP     0x10ec           0xb4         180   
.text.SERCOM3_USART_TxP     0x11a0           0xb4         180   
.text.__fmt_d               0x1254           0xb2         178   
.text.__dummy               0x1306            0x2           2   
.text.main                  0x1308           0xb0         176   
.text.SERCOM5_USART_TxP     0x13b8           0xac         172   
.text.SERCOM5_USART_Wri     0x1464           0xac         172   
.text.SERCOM3_USART_TxP     0x1510           0xac         172   
.text.SERCOM3_USART_Wri     0x15bc           0xac         172   
.text.LEDTask               0x1668           0xac         172   
.text.AppTask               0x1714           0x98         152   
.text.DFLL_Initialize       0x17ac           0x80         128   
.text.__pad                 0x182c           0x7a         122   
.text.SYSTICK_DelayMs       0x18a8           0x78         120   
.text.__cvt_u               0x1920           0x76         118   
.text.SERCOM5_USART_Rea     0x1998           0x70         112   
.text.SERCOM3_USART_Rea     0x1a08           0x70         112   
.text.SERCOM5_USART_Sen     0x1a78           0x6c         108   
.text.SERCOM3_USART_Sen     0x1ae4           0x6c         108   
.text.__pop_ptr             0x1b50           0x68         104   
.text.CLOCK_Initialize      0x1bb8           0x64         100   
.text.InitRN                0x1c1c           0x64         100   
.text.SERCOM5_USART_ISR     0x1c80           0x60          96   
.text.SERCOM3_USART_ISR     0x1ce0           0x60          96   
.text.__libc_start_init     0x1d40           0x5c          92   
.text.TC4_TimerInitiali     0x1d9c           0x58          88   
.text.TC3_TimerInitiali     0x1df4           0x58          88   
.text.mySercom3             0x1e4c           0x58          88   
.text.mySercom5             0x1ea4           0x58          88   
.text.SERCOM5_USART_ISR     0x1efc           0x54          84   
.text.SERCOM3_USART_ISR     0x1f50           0x54          84   
.text.__vsnprintf           0x1fa4           0x50          80   
.text                       0x1ff4           0x48          72  App's exec code 
.text.NVIC_Initialize       0x203c           0x48          72   
.text.Reset_Handler         0x2084           0x48          72   
.text.SERCOM5_USART_Rea     0x20cc           0x44          68   
.text.SERCOM3_USART_Rea     0x2110           0x44          68   
.text.SYS_Initialize        0x2154           0x44          68   
.text.SERCOM5_USART_Err     0x2198           0x40          64   
.text.SERCOM5_USART_Rea     0x21d8           0x40          64   
.text.SERCOM5_USART_Wri     0x2218           0x40          64   
.text.SERCOM3_USART_Err     0x2258           0x40          64   
.text.SERCOM3_USART_Rea     0x2298           0x40          64   
.text.SERCOM3_USART_Wri     0x22d8           0x40          64   
.text.TC4_TimerInterrup     0x2318           0x40          64   
.text.TC3_TimerInterrup     0x2358           0x40          64   
.text.atoi                  0x2398           0x40          64   
.text                       0x23d8           0x40          64  App's exec code 
.text.SERCOM3_USART_Wri     0x2418           0x3c          60   
.text                       0x2454           0x3c          60  App's exec code 
.text.ADC_ConversionSta     0x2490           0x38          56   
.text.__NVIC_EnableIRQ      0x24c8           0x34          52   
.text.SERCOM5_USART_ISR     0x24fc           0x34          52   
.text.SERCOM3_USART_ISR     0x2530           0x34          52   
.text.__pic32c_data_ini     0x2564           0x34          52   
.text.__fmt_state           0x2598           0x34          52   
.text.ADC_Enable            0x25cc           0x2c          44   
.text.ADC_ConversionSta     0x25f8           0x2c          44   
.text.GCLK0_Initialize      0x2624           0x2c          44   
.text.SYSTICK_TimerInit     0x2650           0x2c          44   
.text.TC4_TimerStart        0x267c           0x2c          44   
.text.TC4_TimerStop         0x26a8           0x2c          44   
.text.TC3_TimerStart        0x26d4           0x2c          44   
.text.__string_out          0x2700           0x2a          42   
.text.__pop_float           0x272a           0x2a          42   
.text.SERCOM5_USART_Rea     0x2754           0x24          36   
.text.SERCOM3_USART_Rea     0x2778           0x24          36   
.text.TC4_TimerCallback     0x279c           0x24          36   
.text.TC3_TimerCallback     0x27c0           0x24          36   
.text.SERCOM5_USART_Rea     0x27e4           0x20          32   
.text.SERCOM3_USART_Rea     0x2804           0x20          32   
.text.SERCOM3_USART_Wri     0x2824           0x20          32   
.text.SYSTICK_TimerStar     0x2844           0x20          32   
.text.sampleTimer           0x2864           0x20          32   
.text.blinkTimer            0x2884           0x20          32   
.text.__dinit_copy          0x28a4           0x1e          30   
.text.SERCOM5_USART_Wri     0x28c4           0x1c          28   
.text.SERCOM3_USART_Wri     0x28e0           0x1c          28   
.text.SERCOM5_USART_Wri     0x28fc           0x18          24   
.text.SERCOM3_USART_Wri     0x2914           0x18          24   
.text.strlen                0x292c           0x18          24   
.text.__vfprintf            0x2944           0x18          24   
.text                       0x295c           0x18          24  App's exec code 
.text                       0x2974           0x18          24  App's exec code 
.text                       0x298c           0x18          24  App's exec code 
.text.__wrap_sprintf        0x29a4           0x16          22   
.rodata                     0x29ba           0x16          22  Read-only const 
.text.ADC_ConversionRes     0x29d0           0x14          20   
.text.SYSCTRL_Initializ     0x29e4           0x14          20   
.text.NVMCTRL_Initializ     0x29f8           0x14          20   
.rodata                     0x2a0c           0x14          20  Read-only const 
.text.memcpy                0x2a20           0x14          20   
.text.__vsprintf            0x2a34           0x14          20   
.text.memset                0x2a48           0x14          20   
.text.__dinit_clear         0x2a5c           0x12          18   
.text.tolower               0x2a6e            0xe          14   
.rodata                     0x2a7c            0x8           8  Read-only const 
.rodata.str1.1              0x2a84            0x8           8   
.text.NonMaskableInt_Ha     0x2a8c            0x6           6   
.text.HardFault_Handler     0x2a92            0x6           6   
.text.__dummy_decompres     0x2a98            0x4           4   
.text.__dummy_fmt3          0x2a9c            0x4           4   
.text.__dummy_fmt4          0x2aa0            0x4           4   
.text.__dummy_fmts          0x2aa4            0x4           4   
.text                       0x2aa8            0x4           4  App's exec code 
      Total ROM used  :      0x2aa6       10918  8.3% of 0x20000
        --------------------------------------------------------------------------
         Total Program Memory used  :      0x2aa6       10918  8.3% of 0x20000
        --------------------------------------------------------------------------


RAM Data-Memory Usage
section                    address  length [bytes]      (dec)  Description
-------                 ----------  -------------------------  -----------
.bss.myAppData          0x20000000          0x120         288   
.bss.SERCOM5_USART_Read 0x20000120           0x80         128   
.bss.SERCOM5_USART_Writ 0x200001a0           0x80         128   
.bss.SERCOM3_USART_Read 0x20000220           0x80         128   
.bss.SERCOM3_USART_Writ 0x200002a0           0x80         128   
.bss                    0x20000320           0x50          80  Uninitialized data 
.bss.sercom5USARTObj    0x20000370           0x40          64   
.bss.sercom3USARTObj    0x200003b0           0x40          64   
.bss                    0x200003f0           0x1c          28  Uninitialized data 
.bss.TC4_CallbackObject 0x2000040c            0x8           8   
.bss.TC3_CallbackObject 0x20000414            0x8           8   
.bss.context1           0x2000041c            0x4           4   
.bss.context2           0x20000420            0x4           4   
.bss.context3           0x20000424            0x4           4   
.bss.RNPins             0x20000428            0x4           4   
.bss                    0x2000042c            0x4           4  Uninitialized data 
.bss                    0x20000430            0x4           4  Uninitialized data 
.bss                    0x20000434            0x4           4  Uninitialized data 
.bss.RNAppState         0x20000438            0x1           1   
.bss.LedBlinkPattern    0x20000439            0x1           1   
.bss.count.6585         0x2000043a            0x1           1   
.bss.doubleCount.6586   0x2000043b            0x1           1   
.data.myApp             0x2000043c            0x1           1   
         Total RAM used  :       0x43d        1085  6.6% of 0x4000
        --------------------------------------------------------------------------
            Total Data Memory used  :       0x43d        1085  6.6% of 0x4000
        --------------------------------------------------------------------------


Dynamic Data-Memory Reservation
section                    address  length [bytes]      (dec)  Description
-------                 ----------  -------------------------  -----------
heap                    0x20000440          0x200         512  Reserved for heap 
stack                   0x20000658         0x3998       14744  Reserved for stack 

        --------------------------------------------------------------------------

Microchip PIC32 Memory-Usage Report By Module

        text        data         bss         dec         hex    basename                   filename
--------------------------------------------------------------------------------
        2344           0         320        2664         a68    plib_sercom3_usart.o   build/default/production/_ext/504274921/plib_sercom3_usart.o
        2252           0         320        2572         a0c    plib_sercom5_usart.o   build/default/production/_ext/504274921/plib_sercom5_usart.o
        1086           0           0        1086         43e    __printf_core.o        libc-musl.a
         652           1         305         958         3be    main.o                 build/default/production/_ext/1360937237/main.o
         360           0           0         360         168    plib_adc.o             build/default/production/_ext/60163342/plib_adc.o
         344           0           0         344         158    plib_nvic.o            build/default/production/_ext/1865468468/plib_nvic.o
         292           0           0         292         124    plib_clock.o           build/default/production/_ext/1984496892/plib_clock.o
         276           0           8         284         11c    plib_tc4.o             build/default/production/_ext/829342655/plib_tc4.o
         260           0           0         260         104    plib_port.o            build/default/production/_ext/1865521619/plib_port.o
         232           0           8         240          f0    plib_tc3.o             build/default/production/_ext/829342655/plib_tc3.o
         234           0           0         234          ea    _udivmoddi4.o          libgcc.a
         204           0           3         207          cf    LEDTasks.o             build/default/production/LEDTasks.o
         196           0           0         196          c4    plib_systick.o         build/default/production/_ext/1827571544/plib_systick.o
         192           0           0         192          c0    data_init              data_init
         192           0           0         192          c0    AppTasks.o             build/default/production/AppTasks.o
         190           0           0         190          be    __pop_int.o            libc-musl.a
         186           0           0         186          ba    interrupts.o           build/default/production/_ext/1171490990/interrupts.o
         178           0           0         178          b2    __fmt_d.o              libc-musl.a
         118           0           0         118          76    __cvt_u.o              libc-musl.a
          80           0          28         108          6c    crtbegin.o             c:/program files/microchip/xc32/v4.45/bin/bin/../../lib/gcc/pic32c/8.3.1/thumb/v6-m/nofp/crtbegin.o
         104           0           0         104          68    __pop_ptr.o            libc-musl.a
          94           0           0          94          5e    __libc_start_main.o    libc-musl.a
           0           0          80          80          50    libc.o                 libc-musl.a
          76           0           4          80          50    data_init.o            libpic32c.a
          80           0           0          80          50    __int_vsnprintf.o      libc-musl.a
          76           0           0          76          4c    initialization.o       build/default/production/_ext/1171490990/initialization.o
          74           0           0          74          4a    startup_xc32.o         build/default/production/_ext/1171490990/startup_xc32.o
          64           0           0          64          40    _aeabi_uldivmod.o      libgcc.a
          64           0           0          64          40    atoi.o                 libc-musl.a
          60           0           0          60          3c    _clzsi2.o              libgcc.a
          42           0           0          42          2a    __pop_float.o          libc-musl.a
          30           0           0          30          1e    pic32_data_init_copy.o libpic32c.a
          24           0           0          24          18    strlen.o               libc-size-musl.a
          24           0           0          24          18    _clzdi2.o              libgcc.a
          24           0           0          24          18    _lshrdi3.o             libgcc.a
          24           0           0          24          18    _ashldi3.o             libgcc.a
          24           0           0          24          18    __int_vfprintf.o       libc-musl.a
          22           0           0          22          16    __sio_sprintf_dn.o     libc-musl.a
          20           0           0          20          14    memcpy.o               libc-size-musl.a
          20           0           0          20          14    __int_vsprintf.o       libc-musl.a
          20           0           0          20          14    plib_nvmctrl.o         build/default/production/_ext/1593096446/plib_nvmctrl.o
          20           0           0          20          14    memset.o               libc-size-musl.a
          18           0           0          18          12    pic32_data_init_clear.olibpic32c.a
          16           0           0          16          10    crtn.o                 c:/program files/microchip/xc32/v4.45/bin/bin/../../lib/gcc/pic32c/8.3.1/thumb/v6-m/nofp/crtn.o
          14           0           0          14           e    tolower.o              libc-musl.a
          12           0           0          12           c    exceptions.o           build/default/production/_ext/1171490990/exceptions.o
           8           0           0           8           8    crti.o                 c:/program files/microchip/xc32/v4.45/bin/bin/../../lib/gcc/pic32c/8.3.1/thumb/v6-m/nofp/crti.o
           4           0           0           4           4    _dvmd_tls.o            libgcc.a
           0           0           4           4           4    __environ.o            libc-musl.a
           0           0           4           4           4    __errno_location.o     libc-musl.a
--------------------------------------------------------------------------------
       10926           1        1084       12011        2eeb    dist/default/production/25060_LPW2_LAB3A.X.production.elf


Discarded input sections

 .text          0x0000000000000000        0x0 c:/program files/microchip/xc32/v4.45/bin/bin/../../lib/gcc/pic32c/8.3.1/thumb/v6-m/nofp/crti.o
 .data          0x0000000000000000        0x0 c:/program files/microchip/xc32/v4.45/bin/bin/../../lib/gcc/pic32c/8.3.1/thumb/v6-m/nofp/crti.o
 .bss           0x0000000000000000        0x0 c:/program files/microchip/xc32/v4.45/bin/bin/../../lib/gcc/pic32c/8.3.1/thumb/v6-m/nofp/crti.o
 .xc_stack_usage.hdr
                0x0000000000000000        0xe c:/program files/microchip/xc32/v4.45/bin/bin/../../lib/gcc/pic32c/8.3.1/thumb/v6-m/nofp/crti.o
 .xc_stack_usage
                0x0000000000000000       0x26 c:/program files/microchip/xc32/v4.45/bin/bin/../../lib/gcc/pic32c/8.3.1/thumb/v6-m/nofp/crti.o
 .data          0x0000000000000000        0x4 c:/program files/microchip/xc32/v4.45/bin/bin/../../lib/gcc/pic32c/8.3.1/thumb/v6-m/nofp/crtbegin.o
 .xc_stack_usage
                0x0000000000000000       0x3c c:/program files/microchip/xc32/v4.45/bin/bin/../../lib/gcc/pic32c/8.3.1/thumb/v6-m/nofp/crtbegin.o
 .xc_stack_usage.hdr
                0x0000000000000000        0xe c:/program files/microchip/xc32/v4.45/bin/bin/../../lib/gcc/pic32c/8.3.1/thumb/v6-m/nofp/crtbegin.o
 .text          0x0000000000000000        0x0 build/default/production/_ext/60163342/plib_adc.o
 .data          0x0000000000000000        0x0 build/default/production/_ext/60163342/plib_adc.o
 .bss           0x0000000000000000        0x0 build/default/production/_ext/60163342/plib_adc.o
 .text.ADC_Disable
                0x0000000000000000       0x2c build/default/production/_ext/60163342/plib_adc.o
 .text.ADC_ChannelSelect
                0x0000000000000000       0x54 build/default/production/_ext/60163342/plib_adc.o
 .text.ADC_ComparisonWindowSet
                0x0000000000000000       0x4c build/default/production/_ext/60163342/plib_adc.o
 .text.ADC_WindowModeSet
                0x0000000000000000       0x30 build/default/production/_ext/60163342/plib_adc.o
 .text.ADC_InterruptsClear
                0x0000000000000000       0x20 build/default/production/_ext/60163342/plib_adc.o
 .text.ADC_InterruptsEnable
                0x0000000000000000       0x20 build/default/production/_ext/60163342/plib_adc.o
 .text.ADC_InterruptsDisable
                0x0000000000000000       0x20 build/default/production/_ext/60163342/plib_adc.o
 .text          0x0000000000000000        0x0 build/default/production/_ext/1984496892/plib_clock.o
 .data          0x0000000000000000        0x0 build/default/production/_ext/1984496892/plib_clock.o
 .bss           0x0000000000000000        0x0 build/default/production/_ext/1984496892/plib_clock.o
 .text          0x0000000000000000        0x0 build/default/production/_ext/1986646378/plib_evsys.o
 .data          0x0000000000000000        0x0 build/default/production/_ext/1986646378/plib_evsys.o
 .bss           0x0000000000000000        0x0 build/default/production/_ext/1986646378/plib_evsys.o
 .text.EVSYS_Initialize
                0x0000000000000000        0xa build/default/production/_ext/1986646378/plib_evsys.o
 .debug_info    0x0000000000000000       0x9c build/default/production/_ext/1986646378/plib_evsys.o
 .debug_abbrev  0x0000000000000000       0x46 build/default/production/_ext/1986646378/plib_evsys.o
 .debug_loc     0x0000000000000000       0x2c build/default/production/_ext/1986646378/plib_evsys.o
 .debug_aranges
                0x0000000000000000       0x20 build/default/production/_ext/1986646378/plib_evsys.o
 .debug_ranges  0x0000000000000000       0x10 build/default/production/_ext/1986646378/plib_evsys.o
 .debug_line    0x0000000000000000       0x66 build/default/production/_ext/1986646378/plib_evsys.o
 .debug_str     0x0000000000000000      0x2bb build/default/production/_ext/1986646378/plib_evsys.o
 .comment       0x0000000000000000       0x2c build/default/production/_ext/1986646378/plib_evsys.o
 .debug_frame   0x0000000000000000       0x2c build/default/production/_ext/1986646378/plib_evsys.o
 .ARM.attributes
                0x0000000000000000       0x2c build/default/production/_ext/1986646378/plib_evsys.o
 .text          0x0000000000000000        0x0 build/default/production/_ext/1865468468/plib_nvic.o
 .data          0x0000000000000000        0x0 build/default/production/_ext/1865468468/plib_nvic.o
 .bss           0x0000000000000000        0x0 build/default/production/_ext/1865468468/plib_nvic.o
 .text.__NVIC_GetEnableIRQ
                0x0000000000000000       0x3c build/default/production/_ext/1865468468/plib_nvic.o
 .text.__NVIC_DisableIRQ
                0x0000000000000000       0x40 build/default/production/_ext/1865468468/plib_nvic.o
 .text.NVIC_INT_Enable
                0x0000000000000000       0x10 build/default/production/_ext/1865468468/plib_nvic.o
 .text.NVIC_INT_Disable
                0x0000000000000000       0x28 build/default/production/_ext/1865468468/plib_nvic.o
 .text.NVIC_INT_Restore
                0x0000000000000000       0x2a build/default/production/_ext/1865468468/plib_nvic.o
 .text.NVIC_INT_SourceDisable
                0x0000000000000000       0x52 build/default/production/_ext/1865468468/plib_nvic.o
 .text.NVIC_INT_SourceRestore
                0x0000000000000000       0x30 build/default/production/_ext/1865468468/plib_nvic.o
 .text          0x0000000000000000        0x0 build/default/production/_ext/1593096446/plib_nvmctrl.o
 .data          0x0000000000000000        0x0 build/default/production/_ext/1593096446/plib_nvmctrl.o
 .bss           0x0000000000000000        0x0 build/default/production/_ext/1593096446/plib_nvmctrl.o
 .text.NVMCTRL_CacheInvalidate
                0x0000000000000000       0x18 build/default/production/_ext/1593096446/plib_nvmctrl.o
 .text.NVMCTRL_RWWEEPROM_Read
                0x0000000000000000       0x26 build/default/production/_ext/1593096446/plib_nvmctrl.o
 .text.NVMCTRL_RWWEEPROM_PageWrite
                0x0000000000000000       0x54 build/default/production/_ext/1593096446/plib_nvmctrl.o
 .text.NVMCTRL_RWWEEPROM_RowErase
                0x0000000000000000       0x28 build/default/production/_ext/1593096446/plib_nvmctrl.o
 .text.NVMCTRL_Read
                0x0000000000000000       0x26 build/default/production/_ext/1593096446/plib_nvmctrl.o
 .text.NVMCTRL_PageBufferWrite
                0x0000000000000000       0x3e build/default/production/_ext/1593096446/plib_nvmctrl.o
 .text.NVMCTRL_PageBufferCommit
                0x0000000000000000       0x4c build/default/production/_ext/1593096446/plib_nvmctrl.o
 .text.NVMCTRL_PageWrite
                0x0000000000000000       0x54 build/default/production/_ext/1593096446/plib_nvmctrl.o
 .text.NVMCTRL_RowErase
                0x0000000000000000       0x28 build/default/production/_ext/1593096446/plib_nvmctrl.o
 .text.NVMCTRL_USER_ROW_PageWrite
                0x0000000000000000       0x80 build/default/production/_ext/1593096446/plib_nvmctrl.o
 .text.NVMCTRL_USER_ROW_RowErase
                0x0000000000000000       0x54 build/default/production/_ext/1593096446/plib_nvmctrl.o
 .text.NVMCTRL_ErrorGet
                0x0000000000000000       0x3c build/default/production/_ext/1593096446/plib_nvmctrl.o
 .text.NVMCTRL_IsBusy
                0x0000000000000000       0x24 build/default/production/_ext/1593096446/plib_nvmctrl.o
 .text.NVMCTRL_RegionLock
                0x0000000000000000       0x28 build/default/production/_ext/1593096446/plib_nvmctrl.o
 .text.NVMCTRL_RegionUnlock
                0x0000000000000000       0x28 build/default/production/_ext/1593096446/plib_nvmctrl.o
 .text.NVMCTRL_SecurityBitSet
                0x0000000000000000       0x18 build/default/production/_ext/1593096446/plib_nvmctrl.o
 .text          0x0000000000000000        0x0 build/default/production/_ext/1865521619/plib_port.o
 .data          0x0000000000000000        0x0 build/default/production/_ext/1865521619/plib_port.o
 .bss           0x0000000000000000        0x0 build/default/production/_ext/1865521619/plib_port.o
 .text.PORT_GroupRead
                0x0000000000000000       0x14 build/default/production/_ext/1865521619/plib_port.o
 .text.PORT_GroupWrite
                0x0000000000000000       0x2c build/default/production/_ext/1865521619/plib_port.o
 .text.PORT_GroupLatchRead
                0x0000000000000000       0x14 build/default/production/_ext/1865521619/plib_port.o
 .text.PORT_GroupSet
                0x0000000000000000       0x18 build/default/production/_ext/1865521619/plib_port.o
 .text.PORT_GroupClear
                0x0000000000000000       0x18 build/default/production/_ext/1865521619/plib_port.o
 .text.PORT_GroupToggle
                0x0000000000000000       0x18 build/default/production/_ext/1865521619/plib_port.o
 .text.PORT_GroupInputEnable
                0x0000000000000000       0x5a build/default/production/_ext/1865521619/plib_port.o
 .text.PORT_GroupOutputEnable
                0x0000000000000000       0x18 build/default/production/_ext/1865521619/plib_port.o
 .text.PORT_PinPeripheralFunctionConfig
                0x0000000000000000       0xb0 build/default/production/_ext/1865521619/plib_port.o
 .text.PORT_PinGPIOConfig
                0x0000000000000000       0x58 build/default/production/_ext/1865521619/plib_port.o
 .text          0x0000000000000000        0x0 build/default/production/_ext/504274921/plib_sercom5_usart.o
 .data          0x0000000000000000        0x0 build/default/production/_ext/504274921/plib_sercom5_usart.o
 .bss           0x0000000000000000        0x0 build/default/production/_ext/504274921/plib_sercom5_usart.o
 .text.SERCOM5_USART_FrequencyGet
                0x0000000000000000       0x10 build/default/production/_ext/504274921/plib_sercom5_usart.o
 .text.SERCOM5_USART_SerialSetup
                0x0000000000000000      0x1e4 build/default/production/_ext/504274921/plib_sercom5_usart.o
 .text.SERCOM5_USART_Enable
                0x0000000000000000       0x30 build/default/production/_ext/504274921/plib_sercom5_usart.o
 .text.SERCOM5_USART_Disable
                0x0000000000000000       0x30 build/default/production/_ext/504274921/plib_sercom5_usart.o
 .text.SERCOM5_USART_ErrorGet
                0x0000000000000000       0x24 build/default/production/_ext/504274921/plib_sercom5_usart.o
 .text.SERCOM5_USART_ReadFreeBufferCountGet
                0x0000000000000000       0x1c build/default/production/_ext/504274921/plib_sercom5_usart.o
 .text.SERCOM5_USART_ReadBufferSizeGet
                0x0000000000000000       0x14 build/default/production/_ext/504274921/plib_sercom5_usart.o
 .text.SERCOM5_USART_TransmitComplete
                0x0000000000000000       0x34 build/default/production/_ext/504274921/plib_sercom5_usart.o
 .text.SERCOM5_USART_WriteBufferSizeGet
                0x0000000000000000       0x14 build/default/production/_ext/504274921/plib_sercom5_usart.o
 .text.SERCOM5_USART_WriteNotificationEnable
                0x0000000000000000       0x3c build/default/production/_ext/504274921/plib_sercom5_usart.o
 .text.SERCOM5_USART_WriteThresholdSet
                0x0000000000000000       0x20 build/default/production/_ext/504274921/plib_sercom5_usart.o
 .text.SERCOM5_USART_WriteCallbackRegister
                0x0000000000000000       0x24 build/default/production/_ext/504274921/plib_sercom5_usart.o
 .text          0x0000000000000000        0x0 build/default/production/_ext/504274921/plib_sercom3_usart.o
 .data          0x0000000000000000        0x0 build/default/production/_ext/504274921/plib_sercom3_usart.o
 .bss           0x0000000000000000        0x0 build/default/production/_ext/504274921/plib_sercom3_usart.o
 .text.SERCOM3_USART_FrequencyGet
                0x0000000000000000       0x10 build/default/production/_ext/504274921/plib_sercom3_usart.o
 .text.SERCOM3_USART_SerialSetup
                0x0000000000000000      0x1e4 build/default/production/_ext/504274921/plib_sercom3_usart.o
 .text.SERCOM3_USART_Enable
                0x0000000000000000       0x30 build/default/production/_ext/504274921/plib_sercom3_usart.o
 .text.SERCOM3_USART_Disable
                0x0000000000000000       0x30 build/default/production/_ext/504274921/plib_sercom3_usart.o
 .text.SERCOM3_USART_ErrorGet
                0x0000000000000000       0x24 build/default/production/_ext/504274921/plib_sercom3_usart.o
 .text.SERCOM3_USART_ReadFreeBufferCountGet
                0x0000000000000000       0x1c build/default/production/_ext/504274921/plib_sercom3_usart.o
 .text.SERCOM3_USART_ReadBufferSizeGet
                0x0000000000000000       0x14 build/default/production/_ext/504274921/plib_sercom3_usart.o
 .text.SERCOM3_USART_TransmitComplete
                0x0000000000000000       0x34 build/default/production/_ext/504274921/plib_sercom3_usart.o
 .text.SERCOM3_USART_WriteBufferSizeGet
                0x0000000000000000       0x14 build/default/production/_ext/504274921/plib_sercom3_usart.o
 .text.SERCOM3_USART_WriteCallbackRegister
                0x0000000000000000       0x24 build/default/production/_ext/504274921/plib_sercom3_usart.o
 .text          0x0000000000000000        0x0 build/default/production/_ext/1827571544/plib_systick.o
 .data          0x0000000000000000        0x0 build/default/production/_ext/1827571544/plib_systick.o
 .bss           0x0000000000000000        0x0 build/default/production/_ext/1827571544/plib_systick.o
 .text.SYSTICK_TimerRestart
                0x0000000000000000       0x2c build/default/production/_ext/1827571544/plib_systick.o
 .text.SYSTICK_TimerStop
                0x0000000000000000       0x1c build/default/production/_ext/1827571544/plib_systick.o
 .text.SYSTICK_TimerPeriodSet
                0x0000000000000000       0x1c build/default/production/_ext/1827571544/plib_systick.o
 .text.SYSTICK_TimerPeriodGet
                0x0000000000000000       0x14 build/default/production/_ext/1827571544/plib_systick.o
 .text.SYSTICK_TimerCounterGet
                0x0000000000000000       0x14 build/default/production/_ext/1827571544/plib_systick.o
 .text.SYSTICK_TimerFrequencyGet
                0x0000000000000000       0x10 build/default/production/_ext/1827571544/plib_systick.o
 .text.SYSTICK_DelayUs
                0x0000000000000000       0x78 build/default/production/_ext/1827571544/plib_systick.o
 .text.SYSTICK_TimerPeriodHasExpired
                0x0000000000000000       0x20 build/default/production/_ext/1827571544/plib_systick.o
 .text          0x0000000000000000        0x0 build/default/production/_ext/829342655/plib_tc4.o
 .data          0x0000000000000000        0x0 build/default/production/_ext/829342655/plib_tc4.o
 .bss           0x0000000000000000        0x0 build/default/production/_ext/829342655/plib_tc4.o
 .text.TC4_TimerFrequencyGet
                0x0000000000000000       0x10 build/default/production/_ext/829342655/plib_tc4.o
 .text.TC4_TimerCommandSet
                0x0000000000000000       0x34 build/default/production/_ext/829342655/plib_tc4.o
 .text.TC4_Timer16bitCounterGet
                0x0000000000000000       0x2c build/default/production/_ext/829342655/plib_tc4.o
 .text.TC4_Timer16bitCounterSet
                0x0000000000000000       0x30 build/default/production/_ext/829342655/plib_tc4.o
 .text.TC4_Timer16bitPeriodSet
                0x0000000000000000       0x30 build/default/production/_ext/829342655/plib_tc4.o
 .text.TC4_Timer16bitPeriodGet
                0x0000000000000000       0x2c build/default/production/_ext/829342655/plib_tc4.o
 .text          0x0000000000000000        0x0 build/default/production/_ext/829342655/plib_tc3.o
 .data          0x0000000000000000        0x0 build/default/production/_ext/829342655/plib_tc3.o
 .bss           0x0000000000000000        0x0 build/default/production/_ext/829342655/plib_tc3.o
 .text.TC3_TimerStop
                0x0000000000000000       0x2c build/default/production/_ext/829342655/plib_tc3.o
 .text.TC3_TimerFrequencyGet
                0x0000000000000000       0x10 build/default/production/_ext/829342655/plib_tc3.o
 .text.TC3_TimerCommandSet
                0x0000000000000000       0x34 build/default/production/_ext/829342655/plib_tc3.o
 .text.TC3_Timer16bitCounterGet
                0x0000000000000000       0x2c build/default/production/_ext/829342655/plib_tc3.o
 .text.TC3_Timer16bitCounterSet
                0x0000000000000000       0x30 build/default/production/_ext/829342655/plib_tc3.o
 .text.TC3_Timer16bitPeriodSet
                0x0000000000000000       0x30 build/default/production/_ext/829342655/plib_tc3.o
 .text.TC3_Timer16bitPeriodGet
                0x0000000000000000       0x2c build/default/production/_ext/829342655/plib_tc3.o
 .text          0x0000000000000000        0x0 build/default/production/_ext/163028504/xc32_monitor.o
 .data          0x0000000000000000        0x0 build/default/production/_ext/163028504/xc32_monitor.o
 .bss           0x0000000000000000        0x0 build/default/production/_ext/163028504/xc32_monitor.o
 .text.read     0x0000000000000000       0x18 build/default/production/_ext/163028504/xc32_monitor.o
 .text.write    0x0000000000000000       0x18 build/default/production/_ext/163028504/xc32_monitor.o
 .debug_info    0x0000000000000000       0xf1 build/default/production/_ext/163028504/xc32_monitor.o
 .debug_abbrev  0x0000000000000000       0x9e build/default/production/_ext/163028504/xc32_monitor.o
 .debug_loc     0x0000000000000000       0x70 build/default/production/_ext/163028504/xc32_monitor.o
 .debug_aranges
                0x0000000000000000       0x28 build/default/production/_ext/163028504/xc32_monitor.o
 .debug_ranges  0x0000000000000000       0x18 build/default/production/_ext/163028504/xc32_monitor.o
 .debug_line    0x0000000000000000       0xc6 build/default/production/_ext/163028504/xc32_monitor.o
 .debug_str     0x0000000000000000      0x259 build/default/production/_ext/163028504/xc32_monitor.o
 .comment       0x0000000000000000       0x2c build/default/production/_ext/163028504/xc32_monitor.o
 .debug_frame   0x0000000000000000       0x50 build/default/production/_ext/163028504/xc32_monitor.o
 .ARM.attributes
                0x0000000000000000       0x2c build/default/production/_ext/163028504/xc32_monitor.o
 .text          0x0000000000000000        0x0 build/default/production/_ext/1171490990/startup_xc32.o
 .data          0x0000000000000000        0x0 build/default/production/_ext/1171490990/startup_xc32.o
 .bss           0x0000000000000000        0x0 build/default/production/_ext/1171490990/startup_xc32.o
 .text          0x0000000000000000        0x0 build/default/production/_ext/1171490990/exceptions.o
 .data          0x0000000000000000        0x0 build/default/production/_ext/1171490990/exceptions.o
 .bss           0x0000000000000000        0x0 build/default/production/_ext/1171490990/exceptions.o
 .text          0x0000000000000000        0x0 build/default/production/_ext/1171490990/interrupts.o
 .data          0x0000000000000000        0x0 build/default/production/_ext/1171490990/interrupts.o
 .bss           0x0000000000000000        0x0 build/default/production/_ext/1171490990/interrupts.o
 .text          0x0000000000000000        0x0 build/default/production/_ext/1171490990/initialization.o
 .data          0x0000000000000000        0x0 build/default/production/_ext/1171490990/initialization.o
 .bss           0x0000000000000000        0x0 build/default/production/_ext/1171490990/initialization.o
 .text          0x0000000000000000        0x0 build/default/production/_ext/1171490990/libc_syscalls.o
 .data          0x0000000000000000        0x0 build/default/production/_ext/1171490990/libc_syscalls.o
 .bss           0x0000000000000000        0x0 build/default/production/_ext/1171490990/libc_syscalls.o
 .text._exit    0x0000000000000000        0xa build/default/production/_ext/1171490990/libc_syscalls.o
 .debug_info    0x0000000000000000       0xa6 build/default/production/_ext/1171490990/libc_syscalls.o
 .debug_abbrev  0x0000000000000000       0x5a build/default/production/_ext/1171490990/libc_syscalls.o
 .debug_loc     0x0000000000000000       0x38 build/default/production/_ext/1171490990/libc_syscalls.o
 .debug_aranges
                0x0000000000000000       0x20 build/default/production/_ext/1171490990/libc_syscalls.o
 .debug_ranges  0x0000000000000000       0x10 build/default/production/_ext/1171490990/libc_syscalls.o
 .debug_line    0x0000000000000000       0x5a build/default/production/_ext/1171490990/libc_syscalls.o
 .debug_str     0x0000000000000000      0x29d build/default/production/_ext/1171490990/libc_syscalls.o
 .comment       0x0000000000000000       0x2c build/default/production/_ext/1171490990/libc_syscalls.o
 .debug_frame   0x0000000000000000       0x30 build/default/production/_ext/1171490990/libc_syscalls.o
 .ARM.attributes
                0x0000000000000000       0x2c build/default/production/_ext/1171490990/libc_syscalls.o
 .text          0x0000000000000000        0x0 build/default/production/_ext/1360937237/main.o
 .data          0x0000000000000000        0x0 build/default/production/_ext/1360937237/main.o
 .bss           0x0000000000000000        0x0 build/default/production/_ext/1360937237/main.o
 .bss.status    0x0000000000000000        0x1 build/default/production/_ext/1360937237/main.o
 .data.AppState
                0x0000000000000000        0x1 build/default/production/_ext/1360937237/main.o
 .text          0x0000000000000000        0x0 build/default/production/AppTasks.o
 .data          0x0000000000000000        0x0 build/default/production/AppTasks.o
 .bss           0x0000000000000000        0x0 build/default/production/AppTasks.o
 .text          0x0000000000000000        0x0 build/default/production/LEDTasks.o
 .data          0x0000000000000000        0x0 build/default/production/LEDTasks.o
 .bss           0x0000000000000000        0x0 build/default/production/LEDTasks.o
 .text          0x0000000000000000        0x0 c:/program files/microchip/xc32/v4.45/bin/bin/../../lib/gcc/pic32c/8.3.1/../../../../pic32c/lib/thumb/v6-m/nofp\libpic32c.a(data_init.o)
 .data          0x0000000000000000        0x0 c:/program files/microchip/xc32/v4.45/bin/bin/../../lib/gcc/pic32c/8.3.1/../../../../pic32c/lib/thumb/v6-m/nofp\libpic32c.a(data_init.o)
 .xc_stack_usage
                0x0000000000000000       0x4a c:/program files/microchip/xc32/v4.45/bin/bin/../../lib/gcc/pic32c/8.3.1/../../../../pic32c/lib/thumb/v6-m/nofp\libpic32c.a(data_init.o)
 .xc_stack_usage.hdr
                0x0000000000000000        0xe c:/program files/microchip/xc32/v4.45/bin/bin/../../lib/gcc/pic32c/8.3.1/../../../../pic32c/lib/thumb/v6-m/nofp\libpic32c.a(data_init.o)
 .text          0x0000000000000000        0x0 c:/program files/microchip/xc32/v4.45/bin/bin/../../lib/gcc/pic32c/8.3.1/../../../../pic32c/lib/thumb/v6-m/nofp\libc-size-musl.a(memcpy.o)
 .data          0x0000000000000000        0x0 c:/program files/microchip/xc32/v4.45/bin/bin/../../lib/gcc/pic32c/8.3.1/../../../../pic32c/lib/thumb/v6-m/nofp\libc-size-musl.a(memcpy.o)
 .bss           0x0000000000000000        0x0 c:/program files/microchip/xc32/v4.45/bin/bin/../../lib/gcc/pic32c/8.3.1/../../../../pic32c/lib/thumb/v6-m/nofp\libc-size-musl.a(memcpy.o)
 .xc_stack_usage
                0x0000000000000000       0x14 c:/program files/microchip/xc32/v4.45/bin/bin/../../lib/gcc/pic32c/8.3.1/../../../../pic32c/lib/thumb/v6-m/nofp\libc-size-musl.a(memcpy.o)
 .xc_stack_usage.hdr
                0x0000000000000000        0xe c:/program files/microchip/xc32/v4.45/bin/bin/../../lib/gcc/pic32c/8.3.1/../../../../pic32c/lib/thumb/v6-m/nofp\libc-size-musl.a(memcpy.o)
 .text          0x0000000000000000        0x0 c:/program files/microchip/xc32/v4.45/bin/bin/../../lib/gcc/pic32c/8.3.1/../../../../pic32c/lib/thumb/v6-m/nofp\libc-size-musl.a(strlen.o)
 .data          0x0000000000000000        0x0 c:/program files/microchip/xc32/v4.45/bin/bin/../../lib/gcc/pic32c/8.3.1/../../../../pic32c/lib/thumb/v6-m/nofp\libc-size-musl.a(strlen.o)
 .bss           0x0000000000000000        0x0 c:/program files/microchip/xc32/v4.45/bin/bin/../../lib/gcc/pic32c/8.3.1/../../../../pic32c/lib/thumb/v6-m/nofp\libc-size-musl.a(strlen.o)
 .xc_stack_usage
                0x0000000000000000       0x14 c:/program files/microchip/xc32/v4.45/bin/bin/../../lib/gcc/pic32c/8.3.1/../../../../pic32c/lib/thumb/v6-m/nofp\libc-size-musl.a(strlen.o)
 .xc_stack_usage.hdr
                0x0000000000000000        0xe c:/program files/microchip/xc32/v4.45/bin/bin/../../lib/gcc/pic32c/8.3.1/../../../../pic32c/lib/thumb/v6-m/nofp\libc-size-musl.a(strlen.o)
 .text          0x0000000000000000        0x0 c:/program files/microchip/xc32/v4.45/bin/bin/../../lib/gcc/pic32c/8.3.1/../../../../pic32c/lib/thumb/v6-m/nofp\libc-musl.a(__libc_start_main.o)
 .data          0x0000000000000000        0x0 c:/program files/microchip/xc32/v4.45/bin/bin/../../lib/gcc/pic32c/8.3.1/../../../../pic32c/lib/thumb/v6-m/nofp\libc-musl.a(__libc_start_main.o)
 .bss           0x0000000000000000        0x0 c:/program files/microchip/xc32/v4.45/bin/bin/../../lib/gcc/pic32c/8.3.1/../../../../pic32c/lib/thumb/v6-m/nofp\libc-musl.a(__libc_start_main.o)
 .xc_stack_usage
                0x0000000000000000       0x34 c:/program files/microchip/xc32/v4.45/bin/bin/../../lib/gcc/pic32c/8.3.1/../../../../pic32c/lib/thumb/v6-m/nofp\libc-musl.a(__libc_start_main.o)
 .xc_stack_usage.hdr
                0x0000000000000000        0xe c:/program files/microchip/xc32/v4.45/bin/bin/../../lib/gcc/pic32c/8.3.1/../../../../pic32c/lib/thumb/v6-m/nofp\libc-musl.a(__libc_start_main.o)
 .text          0x0000000000000000        0x0 c:/program files/microchip/xc32/v4.45/bin/bin/../../lib/gcc/pic32c/8.3.1/../../../../pic32c/lib/thumb/v6-m/nofp\libc-musl.a(libc.o)
 .data          0x0000000000000000        0x0 c:/program files/microchip/xc32/v4.45/bin/bin/../../lib/gcc/pic32c/8.3.1/../../../../pic32c/lib/thumb/v6-m/nofp\libc-musl.a(libc.o)
 .xc_stack_usage.hdr
                0x0000000000000000        0xe c:/program files/microchip/xc32/v4.45/bin/bin/../../lib/gcc/pic32c/8.3.1/../../../../pic32c/lib/thumb/v6-m/nofp\libc-musl.a(libc.o)
 .text          0x0000000000000000        0x0 c:/program files/microchip/xc32/v4.45/bin/bin/../../lib/gcc/pic32c/8.3.1/../../../../pic32c/lib/thumb/v6-m/nofp\libc-musl.a(__sio_sprintf_dn.o)
 .data          0x0000000000000000        0x0 c:/program files/microchip/xc32/v4.45/bin/bin/../../lib/gcc/pic32c/8.3.1/../../../../pic32c/lib/thumb/v6-m/nofp\libc-musl.a(__sio_sprintf_dn.o)
 .bss           0x0000000000000000        0x0 c:/program files/microchip/xc32/v4.45/bin/bin/../../lib/gcc/pic32c/8.3.1/../../../../pic32c/lib/thumb/v6-m/nofp\libc-musl.a(__sio_sprintf_dn.o)
 .xc_stack_usage
                0x0000000000000000       0x3a c:/program files/microchip/xc32/v4.45/bin/bin/../../lib/gcc/pic32c/8.3.1/../../../../pic32c/lib/thumb/v6-m/nofp\libc-musl.a(__sio_sprintf_dn.o)
 .text.__sio_sprintf_dn
                0x0000000000000000       0x10 c:/program files/microchip/xc32/v4.45/bin/bin/../../lib/gcc/pic32c/8.3.1/../../../../pic32c/lib/thumb/v6-m/nofp\libc-musl.a(__sio_sprintf_dn.o)
 .xc_stack_usage.hdr
                0x0000000000000000        0xe c:/program files/microchip/xc32/v4.45/bin/bin/../../lib/gcc/pic32c/8.3.1/../../../../pic32c/lib/thumb/v6-m/nofp\libc-musl.a(__sio_sprintf_dn.o)
 .text          0x0000000000000000        0x0 c:/program files/microchip/xc32/v4.45/bin/bin/../../lib/gcc/pic32c/8.3.1/../../../../pic32c/lib/thumb/v6-m/nofp\libc-musl.a(__fmt_d.o)
 .data          0x0000000000000000        0x0 c:/program files/microchip/xc32/v4.45/bin/bin/../../lib/gcc/pic32c/8.3.1/../../../../pic32c/lib/thumb/v6-m/nofp\libc-musl.a(__fmt_d.o)
 .bss           0x0000000000000000        0x0 c:/program files/microchip/xc32/v4.45/bin/bin/../../lib/gcc/pic32c/8.3.1/../../../../pic32c/lib/thumb/v6-m/nofp\libc-musl.a(__fmt_d.o)
 .xc_stack_usage
                0x0000000000000000       0x15 c:/program files/microchip/xc32/v4.45/bin/bin/../../lib/gcc/pic32c/8.3.1/../../../../pic32c/lib/thumb/v6-m/nofp\libc-musl.a(__fmt_d.o)
 .xc_stack_usage.hdr
                0x0000000000000000        0xe c:/program files/microchip/xc32/v4.45/bin/bin/../../lib/gcc/pic32c/8.3.1/../../../../pic32c/lib/thumb/v6-m/nofp\libc-musl.a(__fmt_d.o)
 .text          0x0000000000000000        0x0 c:/program files/microchip/xc32/v4.45/bin/bin/../../lib/gcc/pic32c/8.3.1/../../../../pic32c/lib/thumb/v6-m/nofp\libc-musl.a(__pop_int.o)
 .data          0x0000000000000000        0x0 c:/program files/microchip/xc32/v4.45/bin/bin/../../lib/gcc/pic32c/8.3.1/../../../../pic32c/lib/thumb/v6-m/nofp\libc-musl.a(__pop_int.o)
 .bss           0x0000000000000000        0x0 c:/program files/microchip/xc32/v4.45/bin/bin/../../lib/gcc/pic32c/8.3.1/../../../../pic32c/lib/thumb/v6-m/nofp\libc-musl.a(__pop_int.o)
 .xc_stack_usage
                0x0000000000000000       0x17 c:/program files/microchip/xc32/v4.45/bin/bin/../../lib/gcc/pic32c/8.3.1/../../../../pic32c/lib/thumb/v6-m/nofp\libc-musl.a(__pop_int.o)
 .xc_stack_usage.hdr
                0x0000000000000000        0xe c:/program files/microchip/xc32/v4.45/bin/bin/../../lib/gcc/pic32c/8.3.1/../../../../pic32c/lib/thumb/v6-m/nofp\libc-musl.a(__pop_int.o)
 .text          0x0000000000000000        0x0 c:/program files/microchip/xc32/v4.45/bin/bin/../../lib/gcc/pic32c/8.3.1/../../../../pic32c/lib/thumb/v6-m/nofp\libc-musl.a(__pop_ptr.o)
 .data          0x0000000000000000        0x0 c:/program files/microchip/xc32/v4.45/bin/bin/../../lib/gcc/pic32c/8.3.1/../../../../pic32c/lib/thumb/v6-m/nofp\libc-musl.a(__pop_ptr.o)
 .bss           0x0000000000000000        0x0 c:/program files/microchip/xc32/v4.45/bin/bin/../../lib/gcc/pic32c/8.3.1/../../../../pic32c/lib/thumb/v6-m/nofp\libc-musl.a(__pop_ptr.o)
 .xc_stack_usage
                0x0000000000000000       0x17 c:/program files/microchip/xc32/v4.45/bin/bin/../../lib/gcc/pic32c/8.3.1/../../../../pic32c/lib/thumb/v6-m/nofp\libc-musl.a(__pop_ptr.o)
 .xc_stack_usage.hdr
                0x0000000000000000        0xe c:/program files/microchip/xc32/v4.45/bin/bin/../../lib/gcc/pic32c/8.3.1/../../../../pic32c/lib/thumb/v6-m/nofp\libc-musl.a(__pop_ptr.o)
 .text          0x0000000000000000        0x0 c:/program files/microchip/xc32/v4.45/bin/bin/../../lib/gcc/pic32c/8.3.1/../../../../pic32c/lib/thumb/v6-m/nofp\libc-musl.a(__printf_core.o)
 .data          0x0000000000000000        0x0 c:/program files/microchip/xc32/v4.45/bin/bin/../../lib/gcc/pic32c/8.3.1/../../../../pic32c/lib/thumb/v6-m/nofp\libc-musl.a(__printf_core.o)
 .bss           0x0000000000000000        0x0 c:/program files/microchip/xc32/v4.45/bin/bin/../../lib/gcc/pic32c/8.3.1/../../../../pic32c/lib/thumb/v6-m/nofp\libc-musl.a(__printf_core.o)
 .xc_stack_usage
                0x0000000000000000       0xaf c:/program files/microchip/xc32/v4.45/bin/bin/../../lib/gcc/pic32c/8.3.1/../../../../pic32c/lib/thumb/v6-m/nofp\libc-musl.a(__printf_core.o)
 .xc_stack_usage.hdr
                0x0000000000000000        0xe c:/program files/microchip/xc32/v4.45/bin/bin/../../lib/gcc/pic32c/8.3.1/../../../../pic32c/lib/thumb/v6-m/nofp\libc-musl.a(__printf_core.o)
 .text          0x0000000000000000        0x0 c:/program files/microchip/xc32/v4.45/bin/bin/../../lib/gcc/pic32c/8.3.1/../../../../pic32c/lib/thumb/v6-m/nofp\libc-musl.a(atoi.o)
 .data          0x0000000000000000        0x0 c:/program files/microchip/xc32/v4.45/bin/bin/../../lib/gcc/pic32c/8.3.1/../../../../pic32c/lib/thumb/v6-m/nofp\libc-musl.a(atoi.o)
 .bss           0x0000000000000000        0x0 c:/program files/microchip/xc32/v4.45/bin/bin/../../lib/gcc/pic32c/8.3.1/../../../../pic32c/lib/thumb/v6-m/nofp\libc-musl.a(atoi.o)
 .xc_stack_usage
                0x0000000000000000       0x12 c:/program files/microchip/xc32/v4.45/bin/bin/../../lib/gcc/pic32c/8.3.1/../../../../pic32c/lib/thumb/v6-m/nofp\libc-musl.a(atoi.o)
 .xc_stack_usage.hdr
                0x0000000000000000        0xe c:/program files/microchip/xc32/v4.45/bin/bin/../../lib/gcc/pic32c/8.3.1/../../../../pic32c/lib/thumb/v6-m/nofp\libc-musl.a(atoi.o)
 .text          0x0000000000000000        0x0 c:/program files/microchip/xc32/v4.45/bin/bin/../../lib/gcc/pic32c/8.3.1/../../../../pic32c/lib/thumb/v6-m/nofp\libc-musl.a(tolower.o)
 .data          0x0000000000000000        0x0 c:/program files/microchip/xc32/v4.45/bin/bin/../../lib/gcc/pic32c/8.3.1/../../../../pic32c/lib/thumb/v6-m/nofp\libc-musl.a(tolower.o)
 .bss           0x0000000000000000        0x0 c:/program files/microchip/xc32/v4.45/bin/bin/../../lib/gcc/pic32c/8.3.1/../../../../pic32c/lib/thumb/v6-m/nofp\libc-musl.a(tolower.o)
 .xc_stack_usage
                0x0000000000000000       0x2e c:/program files/microchip/xc32/v4.45/bin/bin/../../lib/gcc/pic32c/8.3.1/../../../../pic32c/lib/thumb/v6-m/nofp\libc-musl.a(tolower.o)
 .text.__tolower_l
                0x0000000000000000        0x8 c:/program files/microchip/xc32/v4.45/bin/bin/../../lib/gcc/pic32c/8.3.1/../../../../pic32c/lib/thumb/v6-m/nofp\libc-musl.a(tolower.o)
 .xc_stack_usage.hdr
                0x0000000000000000        0xe c:/program files/microchip/xc32/v4.45/bin/bin/../../lib/gcc/pic32c/8.3.1/../../../../pic32c/lib/thumb/v6-m/nofp\libc-musl.a(tolower.o)
 .text          0x0000000000000000        0x0 c:/program files/microchip/xc32/v4.45/bin/bin/../../lib/gcc/pic32c/8.3.1/../../../../pic32c/lib/thumb/v6-m/nofp\libc-musl.a(__environ.o)
 .data          0x0000000000000000        0x0 c:/program files/microchip/xc32/v4.45/bin/bin/../../lib/gcc/pic32c/8.3.1/../../../../pic32c/lib/thumb/v6-m/nofp\libc-musl.a(__environ.o)
 .xc_stack_usage.hdr
                0x0000000000000000        0xe c:/program files/microchip/xc32/v4.45/bin/bin/../../lib/gcc/pic32c/8.3.1/../../../../pic32c/lib/thumb/v6-m/nofp\libc-musl.a(__environ.o)
 .text          0x0000000000000000        0x0 c:/program files/microchip/xc32/v4.45/bin/bin/../../lib/gcc/pic32c/8.3.1/../../../../pic32c/lib/thumb/v6-m/nofp\libc-musl.a(__errno_location.o)
 .data          0x0000000000000000        0x0 c:/program files/microchip/xc32/v4.45/bin/bin/../../lib/gcc/pic32c/8.3.1/../../../../pic32c/lib/thumb/v6-m/nofp\libc-musl.a(__errno_location.o)
 .xc_stack_usage.hdr
                0x0000000000000000        0xe c:/program files/microchip/xc32/v4.45/bin/bin/../../lib/gcc/pic32c/8.3.1/../../../../pic32c/lib/thumb/v6-m/nofp\libc-musl.a(__errno_location.o)
 .text          0x0000000000000000        0x0 c:/program files/microchip/xc32/v4.45/bin/bin/../../lib/gcc/pic32c/8.3.1/../../../../pic32c/lib/thumb/v6-m/nofp\libc-musl.a(__int_vsprintf.o)
 .data          0x0000000000000000        0x0 c:/program files/microchip/xc32/v4.45/bin/bin/../../lib/gcc/pic32c/8.3.1/../../../../pic32c/lib/thumb/v6-m/nofp\libc-musl.a(__int_vsprintf.o)
 .bss           0x0000000000000000        0x0 c:/program files/microchip/xc32/v4.45/bin/bin/../../lib/gcc/pic32c/8.3.1/../../../../pic32c/lib/thumb/v6-m/nofp\libc-musl.a(__int_vsprintf.o)
 .xc_stack_usage
                0x0000000000000000       0x18 c:/program files/microchip/xc32/v4.45/bin/bin/../../lib/gcc/pic32c/8.3.1/../../../../pic32c/lib/thumb/v6-m/nofp\libc-musl.a(__int_vsprintf.o)
 .xc_stack_usage.hdr
                0x0000000000000000        0xe c:/program files/microchip/xc32/v4.45/bin/bin/../../lib/gcc/pic32c/8.3.1/../../../../pic32c/lib/thumb/v6-m/nofp\libc-musl.a(__int_vsprintf.o)
 .text          0x0000000000000000        0x0 c:/program files/microchip/xc32/v4.45/bin/bin/../../lib/gcc/pic32c/8.3.1/../../../../pic32c/lib/thumb/v6-m/nofp\libc-musl.a(__cvt_u.o)
 .data          0x0000000000000000        0x0 c:/program files/microchip/xc32/v4.45/bin/bin/../../lib/gcc/pic32c/8.3.1/../../../../pic32c/lib/thumb/v6-m/nofp\libc-musl.a(__cvt_u.o)
 .bss           0x0000000000000000        0x0 c:/program files/microchip/xc32/v4.45/bin/bin/../../lib/gcc/pic32c/8.3.1/../../../../pic32c/lib/thumb/v6-m/nofp\libc-musl.a(__cvt_u.o)
 .xc_stack_usage
                0x0000000000000000       0x15 c:/program files/microchip/xc32/v4.45/bin/bin/../../lib/gcc/pic32c/8.3.1/../../../../pic32c/lib/thumb/v6-m/nofp\libc-musl.a(__cvt_u.o)
 .xc_stack_usage.hdr
                0x0000000000000000        0xe c:/program files/microchip/xc32/v4.45/bin/bin/../../lib/gcc/pic32c/8.3.1/../../../../pic32c/lib/thumb/v6-m/nofp\libc-musl.a(__cvt_u.o)
 .text          0x0000000000000000        0x0 c:/program files/microchip/xc32/v4.45/bin/bin/../../lib/gcc/pic32c/8.3.1/../../../../pic32c/lib/thumb/v6-m/nofp\libc-musl.a(__pop_float.o)
 .data          0x0000000000000000        0x0 c:/program files/microchip/xc32/v4.45/bin/bin/../../lib/gcc/pic32c/8.3.1/../../../../pic32c/lib/thumb/v6-m/nofp\libc-musl.a(__pop_float.o)
 .bss           0x0000000000000000        0x0 c:/program files/microchip/xc32/v4.45/bin/bin/../../lib/gcc/pic32c/8.3.1/../../../../pic32c/lib/thumb/v6-m/nofp\libc-musl.a(__pop_float.o)
 .xc_stack_usage
                0x0000000000000000       0x19 c:/program files/microchip/xc32/v4.45/bin/bin/../../lib/gcc/pic32c/8.3.1/../../../../pic32c/lib/thumb/v6-m/nofp\libc-musl.a(__pop_float.o)
 .xc_stack_usage.hdr
                0x0000000000000000        0xe c:/program files/microchip/xc32/v4.45/bin/bin/../../lib/gcc/pic32c/8.3.1/../../../../pic32c/lib/thumb/v6-m/nofp\libc-musl.a(__pop_float.o)
 .text          0x0000000000000000        0x0 c:/program files/microchip/xc32/v4.45/bin/bin/../../lib/gcc/pic32c/8.3.1/../../../../pic32c/lib/thumb/v6-m/nofp\libc-musl.a(__int_vsnprintf.o)
 .data          0x0000000000000000        0x0 c:/program files/microchip/xc32/v4.45/bin/bin/../../lib/gcc/pic32c/8.3.1/../../../../pic32c/lib/thumb/v6-m/nofp\libc-musl.a(__int_vsnprintf.o)
 .bss           0x0000000000000000        0x0 c:/program files/microchip/xc32/v4.45/bin/bin/../../lib/gcc/pic32c/8.3.1/../../../../pic32c/lib/thumb/v6-m/nofp\libc-musl.a(__int_vsnprintf.o)
 .xc_stack_usage
                0x0000000000000000       0x19 c:/program files/microchip/xc32/v4.45/bin/bin/../../lib/gcc/pic32c/8.3.1/../../../../pic32c/lib/thumb/v6-m/nofp\libc-musl.a(__int_vsnprintf.o)
 .xc_stack_usage.hdr
                0x0000000000000000        0xe c:/program files/microchip/xc32/v4.45/bin/bin/../../lib/gcc/pic32c/8.3.1/../../../../pic32c/lib/thumb/v6-m/nofp\libc-musl.a(__int_vsnprintf.o)
 .text          0x0000000000000000        0x0 c:/program files/microchip/xc32/v4.45/bin/bin/../../lib/gcc/pic32c/8.3.1/../../../../pic32c/lib/thumb/v6-m/nofp\libc-musl.a(__int_vfprintf.o)
 .data          0x0000000000000000        0x0 c:/program files/microchip/xc32/v4.45/bin/bin/../../lib/gcc/pic32c/8.3.1/../../../../pic32c/lib/thumb/v6-m/nofp\libc-musl.a(__int_vfprintf.o)
 .bss           0x0000000000000000        0x0 c:/program files/microchip/xc32/v4.45/bin/bin/../../lib/gcc/pic32c/8.3.1/../../../../pic32c/lib/thumb/v6-m/nofp\libc-musl.a(__int_vfprintf.o)
 .xc_stack_usage
                0x0000000000000000       0x18 c:/program files/microchip/xc32/v4.45/bin/bin/../../lib/gcc/pic32c/8.3.1/../../../../pic32c/lib/thumb/v6-m/nofp\libc-musl.a(__int_vfprintf.o)
 .xc_stack_usage.hdr
                0x0000000000000000        0xe c:/program files/microchip/xc32/v4.45/bin/bin/../../lib/gcc/pic32c/8.3.1/../../../../pic32c/lib/thumb/v6-m/nofp\libc-musl.a(__int_vfprintf.o)
 .data          0x0000000000000000        0x0 c:/program files/microchip/xc32/v4.45/bin/bin/../../lib/gcc/pic32c/8.3.1/thumb/v6-m/nofp\libgcc.a(_aeabi_uldivmod.o)
 .bss           0x0000000000000000        0x0 c:/program files/microchip/xc32/v4.45/bin/bin/../../lib/gcc/pic32c/8.3.1/thumb/v6-m/nofp\libgcc.a(_aeabi_uldivmod.o)
 .xc_stack_usage.hdr
                0x0000000000000000        0xe c:/program files/microchip/xc32/v4.45/bin/bin/../../lib/gcc/pic32c/8.3.1/thumb/v6-m/nofp\libgcc.a(_aeabi_uldivmod.o)
 .xc_stack_usage
                0x0000000000000000       0x1e c:/program files/microchip/xc32/v4.45/bin/bin/../../lib/gcc/pic32c/8.3.1/thumb/v6-m/nofp\libgcc.a(_aeabi_uldivmod.o)
 .text          0x0000000000000000       0x44 c:/program files/microchip/xc32/v4.45/bin/bin/../../lib/gcc/pic32c/8.3.1/thumb/v6-m/nofp\libgcc.a(_muldi3.o)
 .data          0x0000000000000000        0x0 c:/program files/microchip/xc32/v4.45/bin/bin/../../lib/gcc/pic32c/8.3.1/thumb/v6-m/nofp\libgcc.a(_muldi3.o)
 .bss           0x0000000000000000        0x0 c:/program files/microchip/xc32/v4.45/bin/bin/../../lib/gcc/pic32c/8.3.1/thumb/v6-m/nofp\libgcc.a(_muldi3.o)
 .xc_stack_usage
                0x0000000000000000       0x16 c:/program files/microchip/xc32/v4.45/bin/bin/../../lib/gcc/pic32c/8.3.1/thumb/v6-m/nofp\libgcc.a(_muldi3.o)
 .xc_stack_usage.hdr
                0x0000000000000000        0xe c:/program files/microchip/xc32/v4.45/bin/bin/../../lib/gcc/pic32c/8.3.1/thumb/v6-m/nofp\libgcc.a(_muldi3.o)
 .debug_info    0x0000000000000000      0x243 c:/program files/microchip/xc32/v4.45/bin/bin/../../lib/gcc/pic32c/8.3.1/thumb/v6-m/nofp\libgcc.a(_muldi3.o)
 .debug_abbrev  0x0000000000000000      0x10b c:/program files/microchip/xc32/v4.45/bin/bin/../../lib/gcc/pic32c/8.3.1/thumb/v6-m/nofp\libgcc.a(_muldi3.o)
 .debug_loc     0x0000000000000000      0x176 c:/program files/microchip/xc32/v4.45/bin/bin/../../lib/gcc/pic32c/8.3.1/thumb/v6-m/nofp\libgcc.a(_muldi3.o)
 .debug_aranges
                0x0000000000000000       0x20 c:/program files/microchip/xc32/v4.45/bin/bin/../../lib/gcc/pic32c/8.3.1/thumb/v6-m/nofp\libgcc.a(_muldi3.o)
 .debug_ranges  0x0000000000000000       0x28 c:/program files/microchip/xc32/v4.45/bin/bin/../../lib/gcc/pic32c/8.3.1/thumb/v6-m/nofp\libgcc.a(_muldi3.o)
 .debug_line    0x0000000000000000       0xe7 c:/program files/microchip/xc32/v4.45/bin/bin/../../lib/gcc/pic32c/8.3.1/thumb/v6-m/nofp\libgcc.a(_muldi3.o)
 .debug_str     0x0000000000000000      0x2af c:/program files/microchip/xc32/v4.45/bin/bin/../../lib/gcc/pic32c/8.3.1/thumb/v6-m/nofp\libgcc.a(_muldi3.o)
 .comment       0x0000000000000000       0x2c c:/program files/microchip/xc32/v4.45/bin/bin/../../lib/gcc/pic32c/8.3.1/thumb/v6-m/nofp\libgcc.a(_muldi3.o)
 .debug_frame   0x0000000000000000       0x34 c:/program files/microchip/xc32/v4.45/bin/bin/../../lib/gcc/pic32c/8.3.1/thumb/v6-m/nofp\libgcc.a(_muldi3.o)
 .ARM.attributes
                0x0000000000000000       0x2c c:/program files/microchip/xc32/v4.45/bin/bin/../../lib/gcc/pic32c/8.3.1/thumb/v6-m/nofp\libgcc.a(_muldi3.o)
 .data          0x0000000000000000        0x0 c:/program files/microchip/xc32/v4.45/bin/bin/../../lib/gcc/pic32c/8.3.1/thumb/v6-m/nofp\libgcc.a(_udivmoddi4.o)
 .bss           0x0000000000000000        0x0 c:/program files/microchip/xc32/v4.45/bin/bin/../../lib/gcc/pic32c/8.3.1/thumb/v6-m/nofp\libgcc.a(_udivmoddi4.o)
 .xc_stack_usage
                0x0000000000000000       0x1a c:/program files/microchip/xc32/v4.45/bin/bin/../../lib/gcc/pic32c/8.3.1/thumb/v6-m/nofp\libgcc.a(_udivmoddi4.o)
 .ARM.extab     0x0000000000000000        0x0 c:/program files/microchip/xc32/v4.45/bin/bin/../../lib/gcc/pic32c/8.3.1/thumb/v6-m/nofp\libgcc.a(_udivmoddi4.o)
 .xc_stack_usage.hdr
                0x0000000000000000        0xe c:/program files/microchip/xc32/v4.45/bin/bin/../../lib/gcc/pic32c/8.3.1/thumb/v6-m/nofp\libgcc.a(_udivmoddi4.o)
 .data          0x0000000000000000        0x0 c:/program files/microchip/xc32/v4.45/bin/bin/../../lib/gcc/pic32c/8.3.1/thumb/v6-m/nofp\libgcc.a(_dvmd_tls.o)
 .bss           0x0000000000000000        0x0 c:/program files/microchip/xc32/v4.45/bin/bin/../../lib/gcc/pic32c/8.3.1/thumb/v6-m/nofp\libgcc.a(_dvmd_tls.o)
 .xc_stack_usage.hdr
                0x0000000000000000        0xe c:/program files/microchip/xc32/v4.45/bin/bin/../../lib/gcc/pic32c/8.3.1/thumb/v6-m/nofp\libgcc.a(_dvmd_tls.o)
 .xc_stack_usage
                0x0000000000000000       0x36 c:/program files/microchip/xc32/v4.45/bin/bin/../../lib/gcc/pic32c/8.3.1/thumb/v6-m/nofp\libgcc.a(_dvmd_tls.o)
 .data          0x0000000000000000        0x0 c:/program files/microchip/xc32/v4.45/bin/bin/../../lib/gcc/pic32c/8.3.1/thumb/v6-m/nofp\libgcc.a(_lshrdi3.o)
 .bss           0x0000000000000000        0x0 c:/program files/microchip/xc32/v4.45/bin/bin/../../lib/gcc/pic32c/8.3.1/thumb/v6-m/nofp\libgcc.a(_lshrdi3.o)
 .xc_stack_usage.hdr
                0x0000000000000000        0xe c:/program files/microchip/xc32/v4.45/bin/bin/../../lib/gcc/pic32c/8.3.1/thumb/v6-m/nofp\libgcc.a(_lshrdi3.o)
 .xc_stack_usage
                0x0000000000000000       0x17 c:/program files/microchip/xc32/v4.45/bin/bin/../../lib/gcc/pic32c/8.3.1/thumb/v6-m/nofp\libgcc.a(_lshrdi3.o)
 .data          0x0000000000000000        0x0 c:/program files/microchip/xc32/v4.45/bin/bin/../../lib/gcc/pic32c/8.3.1/thumb/v6-m/nofp\libgcc.a(_ashldi3.o)
 .bss           0x0000000000000000        0x0 c:/program files/microchip/xc32/v4.45/bin/bin/../../lib/gcc/pic32c/8.3.1/thumb/v6-m/nofp\libgcc.a(_ashldi3.o)
 .xc_stack_usage.hdr
                0x0000000000000000        0xe c:/program files/microchip/xc32/v4.45/bin/bin/../../lib/gcc/pic32c/8.3.1/thumb/v6-m/nofp\libgcc.a(_ashldi3.o)
 .xc_stack_usage
                0x0000000000000000       0x17 c:/program files/microchip/xc32/v4.45/bin/bin/../../lib/gcc/pic32c/8.3.1/thumb/v6-m/nofp\libgcc.a(_ashldi3.o)
 .data          0x0000000000000000        0x0 c:/program files/microchip/xc32/v4.45/bin/bin/../../lib/gcc/pic32c/8.3.1/thumb/v6-m/nofp\libgcc.a(_clzdi2.o)
 .bss           0x0000000000000000        0x0 c:/program files/microchip/xc32/v4.45/bin/bin/../../lib/gcc/pic32c/8.3.1/thumb/v6-m/nofp\libgcc.a(_clzdi2.o)
 .xc_stack_usage.hdr
                0x0000000000000000        0xe c:/program files/microchip/xc32/v4.45/bin/bin/../../lib/gcc/pic32c/8.3.1/thumb/v6-m/nofp\libgcc.a(_clzdi2.o)
 .xc_stack_usage
                0x0000000000000000       0x16 c:/program files/microchip/xc32/v4.45/bin/bin/../../lib/gcc/pic32c/8.3.1/thumb/v6-m/nofp\libgcc.a(_clzdi2.o)
 .data          0x0000000000000000        0x0 c:/program files/microchip/xc32/v4.45/bin/bin/../../lib/gcc/pic32c/8.3.1/thumb/v6-m/nofp\libgcc.a(_clzsi2.o)
 .bss           0x0000000000000000        0x0 c:/program files/microchip/xc32/v4.45/bin/bin/../../lib/gcc/pic32c/8.3.1/thumb/v6-m/nofp\libgcc.a(_clzsi2.o)
 .xc_stack_usage.hdr
                0x0000000000000000        0xe c:/program files/microchip/xc32/v4.45/bin/bin/../../lib/gcc/pic32c/8.3.1/thumb/v6-m/nofp\libgcc.a(_clzsi2.o)
 .xc_stack_usage
                0x0000000000000000       0x16 c:/program files/microchip/xc32/v4.45/bin/bin/../../lib/gcc/pic32c/8.3.1/thumb/v6-m/nofp\libgcc.a(_clzsi2.o)
 .text          0x0000000000000000        0x0 c:/program files/microchip/xc32/v4.45/bin/bin/../../lib/gcc/pic32c/8.3.1/../../../../pic32c/lib/thumb/v6-m/nofp\libc-size-musl.a(memset.o)
 .data          0x0000000000000000        0x0 c:/program files/microchip/xc32/v4.45/bin/bin/../../lib/gcc/pic32c/8.3.1/../../../../pic32c/lib/thumb/v6-m/nofp\libc-size-musl.a(memset.o)
 .bss           0x0000000000000000        0x0 c:/program files/microchip/xc32/v4.45/bin/bin/../../lib/gcc/pic32c/8.3.1/../../../../pic32c/lib/thumb/v6-m/nofp\libc-size-musl.a(memset.o)
 .xc_stack_usage
                0x0000000000000000       0x14 c:/program files/microchip/xc32/v4.45/bin/bin/../../lib/gcc/pic32c/8.3.1/../../../../pic32c/lib/thumb/v6-m/nofp\libc-size-musl.a(memset.o)
 .xc_stack_usage.hdr
                0x0000000000000000        0xe c:/program files/microchip/xc32/v4.45/bin/bin/../../lib/gcc/pic32c/8.3.1/../../../../pic32c/lib/thumb/v6-m/nofp\libc-size-musl.a(memset.o)
 .text          0x0000000000000000        0x0 c:/program files/microchip/xc32/v4.45/bin/bin/../../lib/gcc/pic32c/8.3.1/thumb/v6-m/nofp/crtend.o
 .data          0x0000000000000000        0x0 c:/program files/microchip/xc32/v4.45/bin/bin/../../lib/gcc/pic32c/8.3.1/thumb/v6-m/nofp/crtend.o
 .bss           0x0000000000000000        0x0 c:/program files/microchip/xc32/v4.45/bin/bin/../../lib/gcc/pic32c/8.3.1/thumb/v6-m/nofp/crtend.o
 .eh_frame      0x0000000000000000        0x4 c:/program files/microchip/xc32/v4.45/bin/bin/../../lib/gcc/pic32c/8.3.1/thumb/v6-m/nofp/crtend.o
 .xc_stack_usage.hdr
                0x0000000000000000        0xe c:/program files/microchip/xc32/v4.45/bin/bin/../../lib/gcc/pic32c/8.3.1/thumb/v6-m/nofp/crtend.o
 .comment       0x0000000000000000       0x2c c:/program files/microchip/xc32/v4.45/bin/bin/../../lib/gcc/pic32c/8.3.1/thumb/v6-m/nofp/crtend.o
 .ARM.attributes
                0x0000000000000000       0x2c c:/program files/microchip/xc32/v4.45/bin/bin/../../lib/gcc/pic32c/8.3.1/thumb/v6-m/nofp/crtend.o
 .text          0x0000000000000000        0x0 c:/program files/microchip/xc32/v4.45/bin/bin/../../lib/gcc/pic32c/8.3.1/thumb/v6-m/nofp/crtn.o
 .data          0x0000000000000000        0x0 c:/program files/microchip/xc32/v4.45/bin/bin/../../lib/gcc/pic32c/8.3.1/thumb/v6-m/nofp/crtn.o
 .bss           0x0000000000000000        0x0 c:/program files/microchip/xc32/v4.45/bin/bin/../../lib/gcc/pic32c/8.3.1/thumb/v6-m/nofp/crtn.o
 .xc_stack_usage.hdr
                0x0000000000000000        0xe c:/program files/microchip/xc32/v4.45/bin/bin/../../lib/gcc/pic32c/8.3.1/thumb/v6-m/nofp/crtn.o
 .text          0x0000000000000000        0x0 c:/program files/microchip/xc32/v4.45/bin/bin/../../lib/gcc/pic32c/8.3.1/../../../../pic32c/lib/thumb/v6-m/nofp\libpic32c.a(pic32_data_init_clear.o)
 .data          0x0000000000000000        0x0 c:/program files/microchip/xc32/v4.45/bin/bin/../../lib/gcc/pic32c/8.3.1/../../../../pic32c/lib/thumb/v6-m/nofp\libpic32c.a(pic32_data_init_clear.o)
 .bss           0x0000000000000000        0x0 c:/program files/microchip/xc32/v4.45/bin/bin/../../lib/gcc/pic32c/8.3.1/../../../../pic32c/lib/thumb/v6-m/nofp\libpic32c.a(pic32_data_init_clear.o)
 .xc_stack_usage
                0x0000000000000000       0x1b c:/program files/microchip/xc32/v4.45/bin/bin/../../lib/gcc/pic32c/8.3.1/../../../../pic32c/lib/thumb/v6-m/nofp\libpic32c.a(pic32_data_init_clear.o)
 .xc_stack_usage.hdr
                0x0000000000000000        0xe c:/program files/microchip/xc32/v4.45/bin/bin/../../lib/gcc/pic32c/8.3.1/../../../../pic32c/lib/thumb/v6-m/nofp\libpic32c.a(pic32_data_init_clear.o)
 .text          0x0000000000000000        0x0 c:/program files/microchip/xc32/v4.45/bin/bin/../../lib/gcc/pic32c/8.3.1/../../../../pic32c/lib/thumb/v6-m/nofp\libpic32c.a(pic32_data_init_copy.o)
 .data          0x0000000000000000        0x0 c:/program files/microchip/xc32/v4.45/bin/bin/../../lib/gcc/pic32c/8.3.1/../../../../pic32c/lib/thumb/v6-m/nofp\libpic32c.a(pic32_data_init_copy.o)
 .bss           0x0000000000000000        0x0 c:/program files/microchip/xc32/v4.45/bin/bin/../../lib/gcc/pic32c/8.3.1/../../../../pic32c/lib/thumb/v6-m/nofp\libpic32c.a(pic32_data_init_copy.o)
 .xc_stack_usage
                0x0000000000000000       0x1a c:/program files/microchip/xc32/v4.45/bin/bin/../../lib/gcc/pic32c/8.3.1/../../../../pic32c/lib/thumb/v6-m/nofp\libpic32c.a(pic32_data_init_copy.o)
 .xc_stack_usage.hdr
                0x0000000000000000        0xe c:/program files/microchip/xc32/v4.45/bin/bin/../../lib/gcc/pic32c/8.3.1/../../../../pic32c/lib/thumb/v6-m/nofp\libpic32c.a(pic32_data_init_copy.o)

Memory Configuration

Name             Origin             Length             Attributes
rom              0x0000000000000000 0x0000000000020000 xrl
ram              0x0000000020000000 0x0000000000004000 xw !r
config_00804000  0x0000000000804000 0x0000000000000004
config_00804004  0x0000000000804004 0x0000000000000004
*default*        0x0000000000000000 0xffffffffffffffff

Linker script and memory map

LOAD c:/program files/microchip/xc32/v4.45/bin/bin/../../lib/gcc/pic32c/8.3.1/thumb/v6-m/nofp/crti.o
LOAD c:/program files/microchip/xc32/v4.45/bin/bin/../../lib/gcc/pic32c/8.3.1/thumb/v6-m/nofp/crtbegin.o
LOAD build/default/production/_ext/60163342/plib_adc.o
LOAD build/default/production/_ext/1984496892/plib_clock.o
LOAD build/default/production/_ext/1986646378/plib_evsys.o
LOAD build/default/production/_ext/1865468468/plib_nvic.o
LOAD build/default/production/_ext/1593096446/plib_nvmctrl.o
LOAD build/default/production/_ext/1865521619/plib_port.o
LOAD build/default/production/_ext/504274921/plib_sercom5_usart.o
LOAD build/default/production/_ext/504274921/plib_sercom3_usart.o
LOAD build/default/production/_ext/1827571544/plib_systick.o
LOAD build/default/production/_ext/829342655/plib_tc4.o
LOAD build/default/production/_ext/829342655/plib_tc3.o
LOAD build/default/production/_ext/163028504/xc32_monitor.o
LOAD build/default/production/_ext/1171490990/startup_xc32.o
LOAD build/default/production/_ext/1171490990/exceptions.o
LOAD build/default/production/_ext/1171490990/interrupts.o
LOAD build/default/production/_ext/1171490990/initialization.o
LOAD build/default/production/_ext/1171490990/libc_syscalls.o
LOAD build/default/production/_ext/1360937237/main.o
LOAD build/default/production/AppTasks.o
LOAD build/default/production/LEDTasks.o
                0x0000000000000001                __MPLAB_BUILD = 0x1
                0x0000000000020000                __rom_end = (ORIGIN (rom) + LENGTH (rom))
                0x0000000020004000                __ram_end = (ORIGIN (ram) + LENGTH (ram))

.config_00804000
 *(.config_00804000)

.config_00804004
 *(.config_00804004)

.vectors        0x0000000000000000       0xb8
                0x0000000000000000                . = ALIGN (0x4)
                0x0000000000000000                _sfixed = .
 *(.vectors .vectors.* .vectors_default .vectors_default.*)
 .vectors.exception_table
                0x0000000000000000       0xb8 build/default/production/_ext/1171490990/interrupts.o
                0x0000000000000000                exception_table
 *(.isr_vector)
 *(.reset*)
 *(.after_vectors)

.text           0x00000000000000b8       0x20
                0x00000000000000b8                . = ALIGN (0x4)
 *(.glue_7t)
 .glue_7t       0x00000000000000b8        0x0 linker stubs
 *(.glue_7)
 .glue_7        0x00000000000000b8        0x0 linker stubs
 *(.gnu.linkonce.r.*)
 *(.ARM.extab* .gnu.linkonce.armextab.*)
                0x00000000000000b8                . = ALIGN (0x4)
 *(.init)
 .init          0x00000000000000b8        0x4 c:/program files/microchip/xc32/v4.45/bin/bin/../../lib/gcc/pic32c/8.3.1/thumb/v6-m/nofp/crti.o
                0x00000000000000b8                _init
 .init          0x00000000000000bc        0x8 c:/program files/microchip/xc32/v4.45/bin/bin/../../lib/gcc/pic32c/8.3.1/thumb/v6-m/nofp/crtn.o
                0x00000000000000c4                . = ALIGN (0x4)
                0x00000000000000c4                __preinit_array_start = .
 *(.preinit_array)
                0x00000000000000c4                __preinit_array_end = .
                0x00000000000000c4                . = ALIGN (0x4)
                0x00000000000000c4                __init_array_start = .
 *(SORT_BY_NAME(.init_array.*))
 *(.init_array)
 .init_array    0x00000000000000c4        0x4 c:/program files/microchip/xc32/v4.45/bin/bin/../../lib/gcc/pic32c/8.3.1/thumb/v6-m/nofp/crtbegin.o
                0x00000000000000c8                __init_array_end = .
                0x00000000000000c8                . = ALIGN (0x4)
 *crtbegin.o(.ctors)
 *(EXCLUDE_FILE(*crtend.o) .ctors)
 *(SORT_BY_NAME(.ctors.*))
 *crtend.o(.ctors)
                0x00000000000000c8                . = ALIGN (0x4)
 *(.fini)
 .fini          0x00000000000000c8        0x4 c:/program files/microchip/xc32/v4.45/bin/bin/../../lib/gcc/pic32c/8.3.1/thumb/v6-m/nofp/crti.o
                0x00000000000000c8                _fini
 .fini          0x00000000000000cc        0x8 c:/program files/microchip/xc32/v4.45/bin/bin/../../lib/gcc/pic32c/8.3.1/thumb/v6-m/nofp/crtn.o
                0x00000000000000d4                . = ALIGN (0x4)
                0x00000000000000d4                __fini_array_start = .
 *(.fini_array)
 .fini_array    0x00000000000000d4        0x4 c:/program files/microchip/xc32/v4.45/bin/bin/../../lib/gcc/pic32c/8.3.1/thumb/v6-m/nofp/crtbegin.o
 *(SORT_BY_NAME(.fini_array.*))
                0x00000000000000d8                __fini_array_end = .
 *crtbegin.o(.dtors)
 *(EXCLUDE_FILE(*crtend.o) .dtors)
 *(SORT_BY_NAME(.dtors.*))
 *crtend.o(.dtors)
                0x00000000000000d8                . = ALIGN (0x4)
                0x00000000000000d8                _efixed = .
                [!provide]                        PROVIDE (__exidx_start = .)

.ARM.exidx      0x00000000000000d8        0x8
 *(.ARM.exidx* .gnu.linkonce.armexidx.*)
 .ARM.exidx     0x00000000000000d8        0x8 c:/program files/microchip/xc32/v4.45/bin/bin/../../lib/gcc/pic32c/8.3.1/thumb/v6-m/nofp\libgcc.a(_udivmoddi4.o)
                [!provide]                        PROVIDE (__exidx_end = .)
                0x00000000000000e0                . = ALIGN (0x4)
                0x00000000000000e0                _etext = .

.bss            0x0000000020000000        0x0
                0x0000000020000000                . = ALIGN (0x4)
                0x0000000020000000                __bss_start__ = .
                0x0000000020000000                _sbss = .
                0x0000000020000000                _szero = .
 *(COMMON)
                0x0000000020000000                . = ALIGN (0x4)
                0x0000000020000000                __bss_end__ = .
                0x0000000020000000                _ebss = .
                0x0000000020000000                _ezero = .
                0x0000000020000000                . = ALIGN (0x4)
                0x0000000020000000                _end = .
                0x0000000020003fff                _ram_end_ = ((ORIGIN (ram) + LENGTH (ram)) - 0x1)
                0x0000000000000200                _min_heap_size = 0x200
START GROUP
LOAD c:/program files/microchip/xc32/v4.45/bin/bin/../../lib/gcc/pic32c/8.3.1/../../../../pic32c/lib/thumb/v6-m/nofp\libpic32c.a
LOAD c:/program files/microchip/xc32/v4.45/bin/bin/../../lib/gcc/pic32c/8.3.1/../../../../pic32c/lib/thumb/v6-m/nofp\libc-size-musl.a
LOAD c:/program files/microchip/xc32/v4.45/bin/bin/../../lib/gcc/pic32c/8.3.1/../../../../pic32c/lib/thumb/v6-m/nofp\liblmalloc-musl.a
LOAD c:/program files/microchip/xc32/v4.45/bin/bin/../../lib/gcc/pic32c/8.3.1/../../../../pic32c/lib/thumb/v6-m/nofp\libm-fast-emfloat.a
LOAD c:/program files/microchip/xc32/v4.45/bin/bin/../../lib/gcc/pic32c/8.3.1/../../../../pic32c/lib/thumb/v6-m/nofp\libm-musl.a
LOAD c:/program files/microchip/xc32/v4.45/bin/bin/../../lib/gcc/pic32c/8.3.1/../../../../pic32c/lib/thumb/v6-m/nofp\libc-musl.a
LOAD c:/program files/microchip/xc32/v4.45/bin/bin/../../lib/gcc/pic32c/8.3.1/../../../../pic32c/lib/thumb/v6-m/nofp\libm-fast-emfloat.a
LOAD c:/program files/microchip/xc32/v4.45/bin/bin/../../lib/gcc/pic32c/8.3.1/../../../../pic32c/lib/thumb/v6-m/nofp\libm-musl.a
LOAD c:/program files/microchip/xc32/v4.45/bin/bin/../../lib/gcc/pic32c/8.3.1/thumb/v6-m/nofp\libgcc.a
END GROUP
LOAD c:/program files/microchip/xc32/v4.45/bin/bin/../../lib/gcc/pic32c/8.3.1/thumb/v6-m/nofp/crtend.o
LOAD c:/program files/microchip/xc32/v4.45/bin/bin/../../lib/gcc/pic32c/8.3.1/thumb/v6-m/nofp/crtn.o
OUTPUT(dist/default/production/25060_LPW2_LAB3A.X.production.elf elf32-littlearm)
LOAD data_init
LOAD stack

.ARM.attributes
                0x0000000000000000       0x2c
 .ARM.attributes
                0x0000000000000000       0x1e c:/program files/microchip/xc32/v4.45/bin/bin/../../lib/gcc/pic32c/8.3.1/thumb/v6-m/nofp/crti.o
 .ARM.attributes
                0x000000000000001e       0x2c c:/program files/microchip/xc32/v4.45/bin/bin/../../lib/gcc/pic32c/8.3.1/thumb/v6-m/nofp/crtbegin.o
 .ARM.attributes
                0x000000000000004a       0x2c build/default/production/_ext/60163342/plib_adc.o
 .ARM.attributes
                0x0000000000000076       0x2c build/default/production/_ext/1984496892/plib_clock.o
 .ARM.attributes
                0x00000000000000a2       0x2c build/default/production/_ext/1865468468/plib_nvic.o
 .ARM.attributes
                0x00000000000000ce       0x2c build/default/production/_ext/1593096446/plib_nvmctrl.o
 .ARM.attributes
                0x00000000000000fa       0x2c build/default/production/_ext/1865521619/plib_port.o
 .ARM.attributes
                0x0000000000000126       0x2c build/default/production/_ext/504274921/plib_sercom5_usart.o
 .ARM.attributes
                0x0000000000000152       0x2c build/default/production/_ext/504274921/plib_sercom3_usart.o
 .ARM.attributes
                0x000000000000017e       0x2c build/default/production/_ext/1827571544/plib_systick.o
 .ARM.attributes
                0x00000000000001aa       0x2c build/default/production/_ext/829342655/plib_tc4.o
 .ARM.attributes
                0x00000000000001d6       0x2c build/default/production/_ext/829342655/plib_tc3.o
 .ARM.attributes
                0x0000000000000202       0x2c build/default/production/_ext/1171490990/startup_xc32.o
 .ARM.attributes
                0x000000000000022e       0x2c build/default/production/_ext/1171490990/exceptions.o
 .ARM.attributes
                0x000000000000025a       0x2c build/default/production/_ext/1171490990/interrupts.o
 .ARM.attributes
                0x0000000000000286       0x2c build/default/production/_ext/1171490990/initialization.o
 .ARM.attributes
                0x00000000000002b2       0x2c build/default/production/_ext/1360937237/main.o
 .ARM.attributes
                0x00000000000002de       0x2c build/default/production/AppTasks.o
 .ARM.attributes
                0x000000000000030a       0x2c build/default/production/LEDTasks.o
 .ARM.attributes
                0x0000000000000336       0x2c c:/program files/microchip/xc32/v4.45/bin/bin/../../lib/gcc/pic32c/8.3.1/../../../../pic32c/lib/thumb/v6-m/nofp\libpic32c.a(data_init.o)
 .ARM.attributes
                0x0000000000000362       0x2e c:/program files/microchip/xc32/v4.45/bin/bin/../../lib/gcc/pic32c/8.3.1/../../../../pic32c/lib/thumb/v6-m/nofp\libc-size-musl.a(memcpy.o)
 .ARM.attributes
                0x0000000000000390       0x2e c:/program files/microchip/xc32/v4.45/bin/bin/../../lib/gcc/pic32c/8.3.1/../../../../pic32c/lib/thumb/v6-m/nofp\libc-size-musl.a(strlen.o)
 .ARM.attributes
                0x00000000000003be       0x2e c:/program files/microchip/xc32/v4.45/bin/bin/../../lib/gcc/pic32c/8.3.1/../../../../pic32c/lib/thumb/v6-m/nofp\libc-musl.a(__libc_start_main.o)
 .ARM.attributes
                0x00000000000003ec       0x2e c:/program files/microchip/xc32/v4.45/bin/bin/../../lib/gcc/pic32c/8.3.1/../../../../pic32c/lib/thumb/v6-m/nofp\libc-musl.a(libc.o)
 .ARM.attributes
                0x000000000000041a       0x2e c:/program files/microchip/xc32/v4.45/bin/bin/../../lib/gcc/pic32c/8.3.1/../../../../pic32c/lib/thumb/v6-m/nofp\libc-musl.a(__sio_sprintf_dn.o)
 .ARM.attributes
                0x0000000000000448       0x2e c:/program files/microchip/xc32/v4.45/bin/bin/../../lib/gcc/pic32c/8.3.1/../../../../pic32c/lib/thumb/v6-m/nofp\libc-musl.a(__fmt_d.o)
 .ARM.attributes
                0x0000000000000476       0x2e c:/program files/microchip/xc32/v4.45/bin/bin/../../lib/gcc/pic32c/8.3.1/../../../../pic32c/lib/thumb/v6-m/nofp\libc-musl.a(__pop_int.o)
 .ARM.attributes
                0x00000000000004a4       0x2e c:/program files/microchip/xc32/v4.45/bin/bin/../../lib/gcc/pic32c/8.3.1/../../../../pic32c/lib/thumb/v6-m/nofp\libc-musl.a(__pop_ptr.o)
 .ARM.attributes
                0x00000000000004d2       0x2e c:/program files/microchip/xc32/v4.45/bin/bin/../../lib/gcc/pic32c/8.3.1/../../../../pic32c/lib/thumb/v6-m/nofp\libc-musl.a(__printf_core.o)
 .ARM.attributes
                0x0000000000000500       0x2e c:/program files/microchip/xc32/v4.45/bin/bin/../../lib/gcc/pic32c/8.3.1/../../../../pic32c/lib/thumb/v6-m/nofp\libc-musl.a(atoi.o)
 .ARM.attributes
                0x000000000000052e       0x2e c:/program files/microchip/xc32/v4.45/bin/bin/../../lib/gcc/pic32c/8.3.1/../../../../pic32c/lib/thumb/v6-m/nofp\libc-musl.a(tolower.o)
 .ARM.attributes
                0x000000000000055c       0x2e c:/program files/microchip/xc32/v4.45/bin/bin/../../lib/gcc/pic32c/8.3.1/../../../../pic32c/lib/thumb/v6-m/nofp\libc-musl.a(__environ.o)
 .ARM.attributes
                0x000000000000058a       0x2e c:/program files/microchip/xc32/v4.45/bin/bin/../../lib/gcc/pic32c/8.3.1/../../../../pic32c/lib/thumb/v6-m/nofp\libc-musl.a(__errno_location.o)
 .ARM.attributes
                0x00000000000005b8       0x2e c:/program files/microchip/xc32/v4.45/bin/bin/../../lib/gcc/pic32c/8.3.1/../../../../pic32c/lib/thumb/v6-m/nofp\libc-musl.a(__int_vsprintf.o)
 .ARM.attributes
                0x00000000000005e6       0x2e c:/program files/microchip/xc32/v4.45/bin/bin/../../lib/gcc/pic32c/8.3.1/../../../../pic32c/lib/thumb/v6-m/nofp\libc-musl.a(__cvt_u.o)
 .ARM.attributes
                0x0000000000000614       0x2e c:/program files/microchip/xc32/v4.45/bin/bin/../../lib/gcc/pic32c/8.3.1/../../../../pic32c/lib/thumb/v6-m/nofp\libc-musl.a(__pop_float.o)
 .ARM.attributes
                0x0000000000000642       0x2e c:/program files/microchip/xc32/v4.45/bin/bin/../../lib/gcc/pic32c/8.3.1/../../../../pic32c/lib/thumb/v6-m/nofp\libc-musl.a(__int_vsnprintf.o)
 .ARM.attributes
                0x0000000000000670       0x2e c:/program files/microchip/xc32/v4.45/bin/bin/../../lib/gcc/pic32c/8.3.1/../../../../pic32c/lib/thumb/v6-m/nofp\libc-musl.a(__int_vfprintf.o)
 .ARM.attributes
                0x000000000000069e       0x1e c:/program files/microchip/xc32/v4.45/bin/bin/../../lib/gcc/pic32c/8.3.1/thumb/v6-m/nofp\libgcc.a(_aeabi_uldivmod.o)
 .ARM.attributes
                0x00000000000006bc       0x2c c:/program files/microchip/xc32/v4.45/bin/bin/../../lib/gcc/pic32c/8.3.1/thumb/v6-m/nofp\libgcc.a(_udivmoddi4.o)
 .ARM.attributes
                0x00000000000006e8       0x1e c:/program files/microchip/xc32/v4.45/bin/bin/../../lib/gcc/pic32c/8.3.1/thumb/v6-m/nofp\libgcc.a(_dvmd_tls.o)
 .ARM.attributes
                0x0000000000000706       0x1e c:/program files/microchip/xc32/v4.45/bin/bin/../../lib/gcc/pic32c/8.3.1/thumb/v6-m/nofp\libgcc.a(_lshrdi3.o)
 .ARM.attributes
                0x0000000000000724       0x1e c:/program files/microchip/xc32/v4.45/bin/bin/../../lib/gcc/pic32c/8.3.1/thumb/v6-m/nofp\libgcc.a(_ashldi3.o)
 .ARM.attributes
                0x0000000000000742       0x1e c:/program files/microchip/xc32/v4.45/bin/bin/../../lib/gcc/pic32c/8.3.1/thumb/v6-m/nofp\libgcc.a(_clzdi2.o)
 .ARM.attributes
                0x0000000000000760       0x1e c:/program files/microchip/xc32/v4.45/bin/bin/../../lib/gcc/pic32c/8.3.1/thumb/v6-m/nofp\libgcc.a(_clzsi2.o)
 .ARM.attributes
                0x000000000000077e       0x2e c:/program files/microchip/xc32/v4.45/bin/bin/../../lib/gcc/pic32c/8.3.1/../../../../pic32c/lib/thumb/v6-m/nofp\libc-size-musl.a(memset.o)
 .ARM.attributes
                0x00000000000007ac       0x1e c:/program files/microchip/xc32/v4.45/bin/bin/../../lib/gcc/pic32c/8.3.1/thumb/v6-m/nofp/crtn.o
 .ARM.attributes
                0x00000000000007ca       0x2c c:/program files/microchip/xc32/v4.45/bin/bin/../../lib/gcc/pic32c/8.3.1/../../../../pic32c/lib/thumb/v6-m/nofp\libpic32c.a(pic32_data_init_clear.o)
 .ARM.attributes
                0x00000000000007f6       0x2c c:/program files/microchip/xc32/v4.45/bin/bin/../../lib/gcc/pic32c/8.3.1/../../../../pic32c/lib/thumb/v6-m/nofp\libpic32c.a(pic32_data_init_copy.o)

.comment        0x0000000000000000       0x2b
 .comment       0x0000000000000000       0x2b c:/program files/microchip/xc32/v4.45/bin/bin/../../lib/gcc/pic32c/8.3.1/thumb/v6-m/nofp/crtbegin.o
                                         0x2c (size before relaxing)
 .comment       0x000000000000002b       0x2c build/default/production/_ext/60163342/plib_adc.o
 .comment       0x000000000000002b       0x2c build/default/production/_ext/1984496892/plib_clock.o
 .comment       0x000000000000002b       0x2c build/default/production/_ext/1865468468/plib_nvic.o
 .comment       0x000000000000002b       0x2c build/default/production/_ext/1593096446/plib_nvmctrl.o
 .comment       0x000000000000002b       0x2c build/default/production/_ext/1865521619/plib_port.o
 .comment       0x000000000000002b       0x2c build/default/production/_ext/504274921/plib_sercom5_usart.o
 .comment       0x000000000000002b       0x2c build/default/production/_ext/504274921/plib_sercom3_usart.o
 .comment       0x000000000000002b       0x2c build/default/production/_ext/1827571544/plib_systick.o
 .comment       0x000000000000002b       0x2c build/default/production/_ext/829342655/plib_tc4.o
 .comment       0x000000000000002b       0x2c build/default/production/_ext/829342655/plib_tc3.o
 .comment       0x000000000000002b       0x2c build/default/production/_ext/1171490990/startup_xc32.o
 .comment       0x000000000000002b       0x2c build/default/production/_ext/1171490990/exceptions.o
 .comment       0x000000000000002b       0x2c build/default/production/_ext/1171490990/interrupts.o
 .comment       0x000000000000002b       0x2c build/default/production/_ext/1171490990/initialization.o
 .comment       0x000000000000002b       0x2c build/default/production/_ext/1360937237/main.o
 .comment       0x000000000000002b       0x2c build/default/production/AppTasks.o
 .comment       0x000000000000002b       0x2c build/default/production/LEDTasks.o
 .comment       0x000000000000002b       0x2c c:/program files/microchip/xc32/v4.45/bin/bin/../../lib/gcc/pic32c/8.3.1/../../../../pic32c/lib/thumb/v6-m/nofp\libpic32c.a(data_init.o)
 .comment       0x000000000000002b       0x2c c:/program files/microchip/xc32/v4.45/bin/bin/../../lib/gcc/pic32c/8.3.1/../../../../pic32c/lib/thumb/v6-m/nofp\libc-size-musl.a(memcpy.o)
 .comment       0x000000000000002b       0x2c c:/program files/microchip/xc32/v4.45/bin/bin/../../lib/gcc/pic32c/8.3.1/../../../../pic32c/lib/thumb/v6-m/nofp\libc-size-musl.a(strlen.o)
 .comment       0x000000000000002b       0x2c c:/program files/microchip/xc32/v4.45/bin/bin/../../lib/gcc/pic32c/8.3.1/../../../../pic32c/lib/thumb/v6-m/nofp\libc-musl.a(__libc_start_main.o)
 .comment       0x000000000000002b       0x2c c:/program files/microchip/xc32/v4.45/bin/bin/../../lib/gcc/pic32c/8.3.1/../../../../pic32c/lib/thumb/v6-m/nofp\libc-musl.a(libc.o)
 .comment       0x000000000000002b       0x2c c:/program files/microchip/xc32/v4.45/bin/bin/../../lib/gcc/pic32c/8.3.1/../../../../pic32c/lib/thumb/v6-m/nofp\libc-musl.a(__sio_sprintf_dn.o)
 .comment       0x000000000000002b       0x2c c:/program files/microchip/xc32/v4.45/bin/bin/../../lib/gcc/pic32c/8.3.1/../../../../pic32c/lib/thumb/v6-m/nofp\libc-musl.a(__fmt_d.o)
 .comment       0x000000000000002b       0x2c c:/program files/microchip/xc32/v4.45/bin/bin/../../lib/gcc/pic32c/8.3.1/../../../../pic32c/lib/thumb/v6-m/nofp\libc-musl.a(__pop_int.o)
 .comment       0x000000000000002b       0x2c c:/program files/microchip/xc32/v4.45/bin/bin/../../lib/gcc/pic32c/8.3.1/../../../../pic32c/lib/thumb/v6-m/nofp\libc-musl.a(__pop_ptr.o)
 .comment       0x000000000000002b       0x2c c:/program files/microchip/xc32/v4.45/bin/bin/../../lib/gcc/pic32c/8.3.1/../../../../pic32c/lib/thumb/v6-m/nofp\libc-musl.a(__printf_core.o)
 .comment       0x000000000000002b       0x2c c:/program files/microchip/xc32/v4.45/bin/bin/../../lib/gcc/pic32c/8.3.1/../../../../pic32c/lib/thumb/v6-m/nofp\libc-musl.a(atoi.o)
 .comment       0x000000000000002b       0x2c c:/program files/microchip/xc32/v4.45/bin/bin/../../lib/gcc/pic32c/8.3.1/../../../../pic32c/lib/thumb/v6-m/nofp\libc-musl.a(tolower.o)
 .comment       0x000000000000002b       0x2c c:/program files/microchip/xc32/v4.45/bin/bin/../../lib/gcc/pic32c/8.3.1/../../../../pic32c/lib/thumb/v6-m/nofp\libc-musl.a(__environ.o)
 .comment       0x000000000000002b       0x2c c:/program files/microchip/xc32/v4.45/bin/bin/../../lib/gcc/pic32c/8.3.1/../../../../pic32c/lib/thumb/v6-m/nofp\libc-musl.a(__errno_location.o)
 .comment       0x000000000000002b       0x2c c:/program files/microchip/xc32/v4.45/bin/bin/../../lib/gcc/pic32c/8.3.1/../../../../pic32c/lib/thumb/v6-m/nofp\libc-musl.a(__int_vsprintf.o)
 .comment       0x000000000000002b       0x2c c:/program files/microchip/xc32/v4.45/bin/bin/../../lib/gcc/pic32c/8.3.1/../../../../pic32c/lib/thumb/v6-m/nofp\libc-musl.a(__cvt_u.o)
 .comment       0x000000000000002b       0x2c c:/program files/microchip/xc32/v4.45/bin/bin/../../lib/gcc/pic32c/8.3.1/../../../../pic32c/lib/thumb/v6-m/nofp\libc-musl.a(__pop_float.o)
 .comment       0x000000000000002b       0x2c c:/program files/microchip/xc32/v4.45/bin/bin/../../lib/gcc/pic32c/8.3.1/../../../../pic32c/lib/thumb/v6-m/nofp\libc-musl.a(__int_vsnprintf.o)
 .comment       0x000000000000002b       0x2c c:/program files/microchip/xc32/v4.45/bin/bin/../../lib/gcc/pic32c/8.3.1/../../../../pic32c/lib/thumb/v6-m/nofp\libc-musl.a(__int_vfprintf.o)
 .comment       0x000000000000002b       0x2c c:/program files/microchip/xc32/v4.45/bin/bin/../../lib/gcc/pic32c/8.3.1/thumb/v6-m/nofp\libgcc.a(_udivmoddi4.o)
 .comment       0x000000000000002b       0x2c c:/program files/microchip/xc32/v4.45/bin/bin/../../lib/gcc/pic32c/8.3.1/../../../../pic32c/lib/thumb/v6-m/nofp\libc-size-musl.a(memset.o)
 .comment       0x000000000000002b       0x2c c:/program files/microchip/xc32/v4.45/bin/bin/../../lib/gcc/pic32c/8.3.1/../../../../pic32c/lib/thumb/v6-m/nofp\libpic32c.a(pic32_data_init_clear.o)
 .comment       0x000000000000002b       0x2c c:/program files/microchip/xc32/v4.45/bin/bin/../../lib/gcc/pic32c/8.3.1/../../../../pic32c/lib/thumb/v6-m/nofp\libpic32c.a(pic32_data_init_copy.o)

.debug_info     0x0000000000000000     0x977d
 .debug_info    0x0000000000000000      0x62a build/default/production/_ext/60163342/plib_adc.o
 .debug_info    0x000000000000062a      0x581 build/default/production/_ext/1984496892/plib_clock.o
 .debug_info    0x0000000000000bab      0x67f build/default/production/_ext/1865468468/plib_nvic.o
 .debug_info    0x000000000000122a      0x5f7 build/default/production/_ext/1593096446/plib_nvmctrl.o
 .debug_info    0x0000000000001821      0x677 build/default/production/_ext/1865521619/plib_port.o
 .debug_info    0x0000000000001e98     0x147f build/default/production/_ext/504274921/plib_sercom5_usart.o
 .debug_info    0x0000000000003317     0x147f build/default/production/_ext/504274921/plib_sercom3_usart.o
 .debug_info    0x0000000000004796      0x2f8 build/default/production/_ext/1827571544/plib_systick.o
 .debug_info    0x0000000000004a8e      0x773 build/default/production/_ext/829342655/plib_tc4.o
 .debug_info    0x0000000000005201      0x773 build/default/production/_ext/829342655/plib_tc3.o
 .debug_info    0x0000000000005974      0x1ac build/default/production/_ext/1171490990/startup_xc32.o
 .debug_info    0x0000000000005b20       0xbc build/default/production/_ext/1171490990/exceptions.o
 .debug_info    0x0000000000005bdc      0x3de build/default/production/_ext/1171490990/interrupts.o
 .debug_info    0x0000000000005fba      0x21a build/default/production/_ext/1171490990/initialization.o
 .debug_info    0x00000000000061d4      0x652 build/default/production/_ext/1360937237/main.o
 .debug_info    0x0000000000006826      0x238 build/default/production/AppTasks.o
 .debug_info    0x0000000000006a5e      0x422 build/default/production/LEDTasks.o
 .debug_info    0x0000000000006e80       0x54 c:/program files/microchip/xc32/v4.45/bin/bin/../../lib/gcc/pic32c/8.3.1/../../../../pic32c/lib/thumb/v6-m/nofp\libpic32c.a(data_init.o)
 .debug_info    0x0000000000006ed4       0xed c:/program files/microchip/xc32/v4.45/bin/bin/../../lib/gcc/pic32c/8.3.1/../../../../pic32c/lib/thumb/v6-m/nofp\libc-size-musl.a(memcpy.o)
 .debug_info    0x0000000000006fc1       0xa4 c:/program files/microchip/xc32/v4.45/bin/bin/../../lib/gcc/pic32c/8.3.1/../../../../pic32c/lib/thumb/v6-m/nofp\libc-size-musl.a(strlen.o)
 .debug_info    0x0000000000007065      0x2fb c:/program files/microchip/xc32/v4.45/bin/bin/../../lib/gcc/pic32c/8.3.1/../../../../pic32c/lib/thumb/v6-m/nofp\libc-musl.a(__libc_start_main.o)
 .debug_info    0x0000000000007360      0x276 c:/program files/microchip/xc32/v4.45/bin/bin/../../lib/gcc/pic32c/8.3.1/../../../../pic32c/lib/thumb/v6-m/nofp\libc-musl.a(libc.o)
 .debug_info    0x00000000000075d6      0x1a7 c:/program files/microchip/xc32/v4.45/bin/bin/../../lib/gcc/pic32c/8.3.1/../../../../pic32c/lib/thumb/v6-m/nofp\libc-musl.a(__sio_sprintf_dn.o)
 .debug_info    0x000000000000777d      0x330 c:/program files/microchip/xc32/v4.45/bin/bin/../../lib/gcc/pic32c/8.3.1/../../../../pic32c/lib/thumb/v6-m/nofp\libc-musl.a(__fmt_d.o)
 .debug_info    0x0000000000007aad      0x183 c:/program files/microchip/xc32/v4.45/bin/bin/../../lib/gcc/pic32c/8.3.1/../../../../pic32c/lib/thumb/v6-m/nofp\libc-musl.a(__pop_int.o)
 .debug_info    0x0000000000007c30      0x18d c:/program files/microchip/xc32/v4.45/bin/bin/../../lib/gcc/pic32c/8.3.1/../../../../pic32c/lib/thumb/v6-m/nofp\libc-musl.a(__pop_ptr.o)
 .debug_info    0x0000000000007dbd      0xa6f c:/program files/microchip/xc32/v4.45/bin/bin/../../lib/gcc/pic32c/8.3.1/../../../../pic32c/lib/thumb/v6-m/nofp\libc-musl.a(__printf_core.o)
 .debug_info    0x000000000000882c       0xf4 c:/program files/microchip/xc32/v4.45/bin/bin/../../lib/gcc/pic32c/8.3.1/../../../../pic32c/lib/thumb/v6-m/nofp\libc-musl.a(atoi.o)
 .debug_info    0x0000000000008920      0x131 c:/program files/microchip/xc32/v4.45/bin/bin/../../lib/gcc/pic32c/8.3.1/../../../../pic32c/lib/thumb/v6-m/nofp\libc-musl.a(tolower.o)
 .debug_info    0x0000000000008a51       0x97 c:/program files/microchip/xc32/v4.45/bin/bin/../../lib/gcc/pic32c/8.3.1/../../../../pic32c/lib/thumb/v6-m/nofp\libc-musl.a(__environ.o)
 .debug_info    0x0000000000008ae8       0x5b c:/program files/microchip/xc32/v4.45/bin/bin/../../lib/gcc/pic32c/8.3.1/../../../../pic32c/lib/thumb/v6-m/nofp\libc-musl.a(__errno_location.o)
 .debug_info    0x0000000000008b43      0x13f c:/program files/microchip/xc32/v4.45/bin/bin/../../lib/gcc/pic32c/8.3.1/../../../../pic32c/lib/thumb/v6-m/nofp\libc-musl.a(__int_vsprintf.o)
 .debug_info    0x0000000000008c82      0x1cf c:/program files/microchip/xc32/v4.45/bin/bin/../../lib/gcc/pic32c/8.3.1/../../../../pic32c/lib/thumb/v6-m/nofp\libc-musl.a(__cvt_u.o)
 .debug_info    0x0000000000008e51      0x162 c:/program files/microchip/xc32/v4.45/bin/bin/../../lib/gcc/pic32c/8.3.1/../../../../pic32c/lib/thumb/v6-m/nofp\libc-musl.a(__pop_float.o)
 .debug_info    0x0000000000008fb3      0x21a c:/program files/microchip/xc32/v4.45/bin/bin/../../lib/gcc/pic32c/8.3.1/../../../../pic32c/lib/thumb/v6-m/nofp\libc-musl.a(__int_vsnprintf.o)
 .debug_info    0x00000000000091cd      0x1ff c:/program files/microchip/xc32/v4.45/bin/bin/../../lib/gcc/pic32c/8.3.1/../../../../pic32c/lib/thumb/v6-m/nofp\libc-musl.a(__int_vfprintf.o)
 .debug_info    0x00000000000093cc       0x26 c:/program files/microchip/xc32/v4.45/bin/bin/../../lib/gcc/pic32c/8.3.1/thumb/v6-m/nofp\libgcc.a(_aeabi_uldivmod.o)
 .debug_info    0x00000000000093f2      0x193 c:/program files/microchip/xc32/v4.45/bin/bin/../../lib/gcc/pic32c/8.3.1/thumb/v6-m/nofp\libgcc.a(_udivmoddi4.o)
 .debug_info    0x0000000000009585       0x26 c:/program files/microchip/xc32/v4.45/bin/bin/../../lib/gcc/pic32c/8.3.1/thumb/v6-m/nofp\libgcc.a(_dvmd_tls.o)
 .debug_info    0x00000000000095ab       0x26 c:/program files/microchip/xc32/v4.45/bin/bin/../../lib/gcc/pic32c/8.3.1/thumb/v6-m/nofp\libgcc.a(_lshrdi3.o)
 .debug_info    0x00000000000095d1       0x26 c:/program files/microchip/xc32/v4.45/bin/bin/../../lib/gcc/pic32c/8.3.1/thumb/v6-m/nofp\libgcc.a(_ashldi3.o)
 .debug_info    0x00000000000095f7       0x26 c:/program files/microchip/xc32/v4.45/bin/bin/../../lib/gcc/pic32c/8.3.1/thumb/v6-m/nofp\libgcc.a(_clzdi2.o)
 .debug_info    0x000000000000961d       0x26 c:/program files/microchip/xc32/v4.45/bin/bin/../../lib/gcc/pic32c/8.3.1/thumb/v6-m/nofp\libgcc.a(_clzsi2.o)
 .debug_info    0x0000000000009643       0xbb c:/program files/microchip/xc32/v4.45/bin/bin/../../lib/gcc/pic32c/8.3.1/../../../../pic32c/lib/thumb/v6-m/nofp\libc-size-musl.a(memset.o)
 .debug_info    0x00000000000096fe       0x3f c:/program files/microchip/xc32/v4.45/bin/bin/../../lib/gcc/pic32c/8.3.1/../../../../pic32c/lib/thumb/v6-m/nofp\libpic32c.a(pic32_data_init_clear.o)
 .debug_info    0x000000000000973d       0x40 c:/program files/microchip/xc32/v4.45/bin/bin/../../lib/gcc/pic32c/8.3.1/../../../../pic32c/lib/thumb/v6-m/nofp\libpic32c.a(pic32_data_init_copy.o)

.debug_abbrev   0x0000000000000000     0x2d32
 .debug_abbrev  0x0000000000000000      0x15b build/default/production/_ext/60163342/plib_adc.o
 .debug_abbrev  0x000000000000015b      0x107 build/default/production/_ext/1984496892/plib_clock.o
 .debug_abbrev  0x0000000000000262      0x22a build/default/production/_ext/1865468468/plib_nvic.o
 .debug_abbrev  0x000000000000048c      0x16e build/default/production/_ext/1593096446/plib_nvmctrl.o
 .debug_abbrev  0x00000000000005fa      0x18c build/default/production/_ext/1865521619/plib_port.o
 .debug_abbrev  0x0000000000000786      0x31b build/default/production/_ext/504274921/plib_sercom5_usart.o
 .debug_abbrev  0x0000000000000aa1      0x31b build/default/production/_ext/504274921/plib_sercom3_usart.o
 .debug_abbrev  0x0000000000000dbc       0xee build/default/production/_ext/1827571544/plib_systick.o
 .debug_abbrev  0x0000000000000eaa      0x196 build/default/production/_ext/829342655/plib_tc4.o
 .debug_abbrev  0x0000000000001040      0x196 build/default/production/_ext/829342655/plib_tc3.o
 .debug_abbrev  0x00000000000011d6       0xf0 build/default/production/_ext/1171490990/startup_xc32.o
 .debug_abbrev  0x00000000000012c6       0x49 build/default/production/_ext/1171490990/exceptions.o
 .debug_abbrev  0x000000000000130f       0xc0 build/default/production/_ext/1171490990/interrupts.o
 .debug_abbrev  0x00000000000013cf       0xbc build/default/production/_ext/1171490990/initialization.o
 .debug_abbrev  0x000000000000148b      0x1ec build/default/production/_ext/1360937237/main.o
 .debug_abbrev  0x0000000000001677       0xf2 build/default/production/AppTasks.o
 .debug_abbrev  0x0000000000001769      0x153 build/default/production/LEDTasks.o
 .debug_abbrev  0x00000000000018bc       0x44 c:/program files/microchip/xc32/v4.45/bin/bin/../../lib/gcc/pic32c/8.3.1/../../../../pic32c/lib/thumb/v6-m/nofp\libpic32c.a(data_init.o)
 .debug_abbrev  0x0000000000001900       0xbb c:/program files/microchip/xc32/v4.45/bin/bin/../../lib/gcc/pic32c/8.3.1/../../../../pic32c/lib/thumb/v6-m/nofp\libc-size-musl.a(memcpy.o)
 .debug_abbrev  0x00000000000019bb       0x91 c:/program files/microchip/xc32/v4.45/bin/bin/../../lib/gcc/pic32c/8.3.1/../../../../pic32c/lib/thumb/v6-m/nofp\libc-size-musl.a(strlen.o)
 .debug_abbrev  0x0000000000001a4c      0x133 c:/program files/microchip/xc32/v4.45/bin/bin/../../lib/gcc/pic32c/8.3.1/../../../../pic32c/lib/thumb/v6-m/nofp\libc-musl.a(__libc_start_main.o)
 .debug_abbrev  0x0000000000001b7f       0xd4 c:/program files/microchip/xc32/v4.45/bin/bin/../../lib/gcc/pic32c/8.3.1/../../../../pic32c/lib/thumb/v6-m/nofp\libc-musl.a(libc.o)
 .debug_abbrev  0x0000000000001c53      0x12b c:/program files/microchip/xc32/v4.45/bin/bin/../../lib/gcc/pic32c/8.3.1/../../../../pic32c/lib/thumb/v6-m/nofp\libc-musl.a(__sio_sprintf_dn.o)
 .debug_abbrev  0x0000000000001d7e      0x161 c:/program files/microchip/xc32/v4.45/bin/bin/../../lib/gcc/pic32c/8.3.1/../../../../pic32c/lib/thumb/v6-m/nofp\libc-musl.a(__fmt_d.o)
 .debug_abbrev  0x0000000000001edf       0xdc c:/program files/microchip/xc32/v4.45/bin/bin/../../lib/gcc/pic32c/8.3.1/../../../../pic32c/lib/thumb/v6-m/nofp\libc-musl.a(__pop_int.o)
 .debug_abbrev  0x0000000000001fbb       0xdc c:/program files/microchip/xc32/v4.45/bin/bin/../../lib/gcc/pic32c/8.3.1/../../../../pic32c/lib/thumb/v6-m/nofp\libc-musl.a(__pop_ptr.o)
 .debug_abbrev  0x0000000000002097      0x317 c:/program files/microchip/xc32/v4.45/bin/bin/../../lib/gcc/pic32c/8.3.1/../../../../pic32c/lib/thumb/v6-m/nofp\libc-musl.a(__printf_core.o)
 .debug_abbrev  0x00000000000023ae       0xc6 c:/program files/microchip/xc32/v4.45/bin/bin/../../lib/gcc/pic32c/8.3.1/../../../../pic32c/lib/thumb/v6-m/nofp\libc-musl.a(atoi.o)
 .debug_abbrev  0x0000000000002474       0xf4 c:/program files/microchip/xc32/v4.45/bin/bin/../../lib/gcc/pic32c/8.3.1/../../../../pic32c/lib/thumb/v6-m/nofp\libc-musl.a(tolower.o)
 .debug_abbrev  0x0000000000002568       0x62 c:/program files/microchip/xc32/v4.45/bin/bin/../../lib/gcc/pic32c/8.3.1/../../../../pic32c/lib/thumb/v6-m/nofp\libc-musl.a(__environ.o)
 .debug_abbrev  0x00000000000025ca       0x39 c:/program files/microchip/xc32/v4.45/bin/bin/../../lib/gcc/pic32c/8.3.1/../../../../pic32c/lib/thumb/v6-m/nofp\libc-musl.a(__errno_location.o)
 .debug_abbrev  0x0000000000002603       0xcb c:/program files/microchip/xc32/v4.45/bin/bin/../../lib/gcc/pic32c/8.3.1/../../../../pic32c/lib/thumb/v6-m/nofp\libc-musl.a(__int_vsprintf.o)
 .debug_abbrev  0x00000000000026ce       0xf3 c:/program files/microchip/xc32/v4.45/bin/bin/../../lib/gcc/pic32c/8.3.1/../../../../pic32c/lib/thumb/v6-m/nofp\libc-musl.a(__cvt_u.o)
 .debug_abbrev  0x00000000000027c1       0xdc c:/program files/microchip/xc32/v4.45/bin/bin/../../lib/gcc/pic32c/8.3.1/../../../../pic32c/lib/thumb/v6-m/nofp\libc-musl.a(__pop_float.o)
 .debug_abbrev  0x000000000000289d      0x154 c:/program files/microchip/xc32/v4.45/bin/bin/../../lib/gcc/pic32c/8.3.1/../../../../pic32c/lib/thumb/v6-m/nofp\libc-musl.a(__int_vsnprintf.o)
 .debug_abbrev  0x00000000000029f1      0x132 c:/program files/microchip/xc32/v4.45/bin/bin/../../lib/gcc/pic32c/8.3.1/../../../../pic32c/lib/thumb/v6-m/nofp\libc-musl.a(__int_vfprintf.o)
 .debug_abbrev  0x0000000000002b23       0x14 c:/program files/microchip/xc32/v4.45/bin/bin/../../lib/gcc/pic32c/8.3.1/thumb/v6-m/nofp\libgcc.a(_aeabi_uldivmod.o)
 .debug_abbrev  0x0000000000002b37       0x99 c:/program files/microchip/xc32/v4.45/bin/bin/../../lib/gcc/pic32c/8.3.1/thumb/v6-m/nofp\libgcc.a(_udivmoddi4.o)
 .debug_abbrev  0x0000000000002bd0       0x14 c:/program files/microchip/xc32/v4.45/bin/bin/../../lib/gcc/pic32c/8.3.1/thumb/v6-m/nofp\libgcc.a(_dvmd_tls.o)
 .debug_abbrev  0x0000000000002be4       0x14 c:/program files/microchip/xc32/v4.45/bin/bin/../../lib/gcc/pic32c/8.3.1/thumb/v6-m/nofp\libgcc.a(_lshrdi3.o)
 .debug_abbrev  0x0000000000002bf8       0x14 c:/program files/microchip/xc32/v4.45/bin/bin/../../lib/gcc/pic32c/8.3.1/thumb/v6-m/nofp\libgcc.a(_ashldi3.o)
 .debug_abbrev  0x0000000000002c0c       0x14 c:/program files/microchip/xc32/v4.45/bin/bin/../../lib/gcc/pic32c/8.3.1/thumb/v6-m/nofp\libgcc.a(_clzdi2.o)
 .debug_abbrev  0x0000000000002c20       0x14 c:/program files/microchip/xc32/v4.45/bin/bin/../../lib/gcc/pic32c/8.3.1/thumb/v6-m/nofp\libgcc.a(_clzsi2.o)
 .debug_abbrev  0x0000000000002c34       0xa2 c:/program files/microchip/xc32/v4.45/bin/bin/../../lib/gcc/pic32c/8.3.1/../../../../pic32c/lib/thumb/v6-m/nofp\libc-size-musl.a(memset.o)
 .debug_abbrev  0x0000000000002cd6       0x2e c:/program files/microchip/xc32/v4.45/bin/bin/../../lib/gcc/pic32c/8.3.1/../../../../pic32c/lib/thumb/v6-m/nofp\libpic32c.a(pic32_data_init_clear.o)
 .debug_abbrev  0x0000000000002d04       0x2e c:/program files/microchip/xc32/v4.45/bin/bin/../../lib/gcc/pic32c/8.3.1/../../../../pic32c/lib/thumb/v6-m/nofp\libpic32c.a(pic32_data_init_copy.o)

.debug_loc      0x0000000000000000     0x3c27
 .debug_loc     0x0000000000000000      0x270 build/default/production/_ext/60163342/plib_adc.o
 .debug_loc     0x0000000000000270       0xbc build/default/production/_ext/1984496892/plib_clock.o
 .debug_loc     0x000000000000032c      0x218 build/default/production/_ext/1865468468/plib_nvic.o
 .debug_loc     0x0000000000000544      0x388 build/default/production/_ext/1593096446/plib_nvmctrl.o
 .debug_loc     0x00000000000008cc      0x25c build/default/production/_ext/1865521619/plib_port.o
 .debug_loc     0x0000000000000b28      0x696 build/default/production/_ext/504274921/plib_sercom5_usart.o
 .debug_loc     0x00000000000011be      0x696 build/default/production/_ext/504274921/plib_sercom3_usart.o
 .debug_loc     0x0000000000001854      0x208 build/default/production/_ext/1827571544/plib_systick.o
 .debug_loc     0x0000000000001a5c      0x220 build/default/production/_ext/829342655/plib_tc4.o
 .debug_loc     0x0000000000001c7c      0x220 build/default/production/_ext/829342655/plib_tc3.o
 .debug_loc     0x0000000000001e9c       0x20 build/default/production/_ext/1171490990/startup_xc32.o
 .debug_loc     0x0000000000001ebc       0x58 build/default/production/_ext/1171490990/exceptions.o
 .debug_loc     0x0000000000001f14       0x38 build/default/production/_ext/1171490990/initialization.o
 .debug_loc     0x0000000000001f4c       0xf4 build/default/production/_ext/1360937237/main.o
 .debug_loc     0x0000000000002040       0x64 build/default/production/AppTasks.o
 .debug_loc     0x00000000000020a4       0x64 build/default/production/LEDTasks.o
 .debug_loc     0x0000000000002108       0x14 c:/program files/microchip/xc32/v4.45/bin/bin/../../lib/gcc/pic32c/8.3.1/../../../../pic32c/lib/thumb/v6-m/nofp\libpic32c.a(data_init.o)
 .debug_loc     0x000000000000211c      0x12d c:/program files/microchip/xc32/v4.45/bin/bin/../../lib/gcc/pic32c/8.3.1/../../../../pic32c/lib/thumb/v6-m/nofp\libc-size-musl.a(memcpy.o)
 .debug_loc     0x0000000000002249       0x81 c:/program files/microchip/xc32/v4.45/bin/bin/../../lib/gcc/pic32c/8.3.1/../../../../pic32c/lib/thumb/v6-m/nofp\libc-size-musl.a(strlen.o)
 .debug_loc     0x00000000000022ca       0x5e c:/program files/microchip/xc32/v4.45/bin/bin/../../lib/gcc/pic32c/8.3.1/../../../../pic32c/lib/thumb/v6-m/nofp\libc-musl.a(__libc_start_main.o)
 .debug_loc     0x0000000000002328       0x86 c:/program files/microchip/xc32/v4.45/bin/bin/../../lib/gcc/pic32c/8.3.1/../../../../pic32c/lib/thumb/v6-m/nofp\libc-musl.a(__sio_sprintf_dn.o)
 .debug_loc     0x00000000000023ae      0x2a6 c:/program files/microchip/xc32/v4.45/bin/bin/../../lib/gcc/pic32c/8.3.1/../../../../pic32c/lib/thumb/v6-m/nofp\libc-musl.a(__fmt_d.o)
 .debug_loc     0x0000000000002654      0x34c c:/program files/microchip/xc32/v4.45/bin/bin/../../lib/gcc/pic32c/8.3.1/../../../../pic32c/lib/thumb/v6-m/nofp\libc-musl.a(__pop_int.o)
 .debug_loc     0x00000000000029a0      0x1fe c:/program files/microchip/xc32/v4.45/bin/bin/../../lib/gcc/pic32c/8.3.1/../../../../pic32c/lib/thumb/v6-m/nofp\libc-musl.a(__pop_ptr.o)
 .debug_loc     0x0000000000002b9e      0x6d9 c:/program files/microchip/xc32/v4.45/bin/bin/../../lib/gcc/pic32c/8.3.1/../../../../pic32c/lib/thumb/v6-m/nofp\libc-musl.a(__printf_core.o)
 .debug_loc     0x0000000000003277       0xdc c:/program files/microchip/xc32/v4.45/bin/bin/../../lib/gcc/pic32c/8.3.1/../../../../pic32c/lib/thumb/v6-m/nofp\libc-musl.a(atoi.o)
 .debug_loc     0x0000000000003353       0x8f c:/program files/microchip/xc32/v4.45/bin/bin/../../lib/gcc/pic32c/8.3.1/../../../../pic32c/lib/thumb/v6-m/nofp\libc-musl.a(tolower.o)
 .debug_loc     0x00000000000033e2       0x8c c:/program files/microchip/xc32/v4.45/bin/bin/../../lib/gcc/pic32c/8.3.1/../../../../pic32c/lib/thumb/v6-m/nofp\libc-musl.a(__int_vsprintf.o)
 .debug_loc     0x000000000000346e      0x1d3 c:/program files/microchip/xc32/v4.45/bin/bin/../../lib/gcc/pic32c/8.3.1/../../../../pic32c/lib/thumb/v6-m/nofp\libc-musl.a(__cvt_u.o)
 .debug_loc     0x0000000000003641       0x6f c:/program files/microchip/xc32/v4.45/bin/bin/../../lib/gcc/pic32c/8.3.1/../../../../pic32c/lib/thumb/v6-m/nofp\libc-musl.a(__pop_float.o)
 .debug_loc     0x00000000000036b0      0x102 c:/program files/microchip/xc32/v4.45/bin/bin/../../lib/gcc/pic32c/8.3.1/../../../../pic32c/lib/thumb/v6-m/nofp\libc-musl.a(__int_vsnprintf.o)
 .debug_loc     0x00000000000037b2       0xb0 c:/program files/microchip/xc32/v4.45/bin/bin/../../lib/gcc/pic32c/8.3.1/../../../../pic32c/lib/thumb/v6-m/nofp\libc-musl.a(__int_vfprintf.o)
 .debug_loc     0x0000000000003862      0x2e4 c:/program files/microchip/xc32/v4.45/bin/bin/../../lib/gcc/pic32c/8.3.1/thumb/v6-m/nofp\libgcc.a(_udivmoddi4.o)
 .debug_loc     0x0000000000003b46       0xcd c:/program files/microchip/xc32/v4.45/bin/bin/../../lib/gcc/pic32c/8.3.1/../../../../pic32c/lib/thumb/v6-m/nofp\libc-size-musl.a(memset.o)
 .debug_loc     0x0000000000003c13       0x14 c:/program files/microchip/xc32/v4.45/bin/bin/../../lib/gcc/pic32c/8.3.1/../../../../pic32c/lib/thumb/v6-m/nofp\libpic32c.a(pic32_data_init_copy.o)

.debug_aranges  0x0000000000000000      0xaa0
 .debug_aranges
                0x0000000000000000       0x78 build/default/production/_ext/60163342/plib_adc.o
 .debug_aranges
                0x0000000000000078       0x38 build/default/production/_ext/1984496892/plib_clock.o
 .debug_aranges
                0x00000000000000b0       0x68 build/default/production/_ext/1865468468/plib_nvic.o
 .debug_aranges
                0x0000000000000118       0xa0 build/default/production/_ext/1593096446/plib_nvmctrl.o
 .debug_aranges
                0x00000000000001b8       0x70 build/default/production/_ext/1865521619/plib_port.o
 .debug_aranges
                0x0000000000000228      0x118 build/default/production/_ext/504274921/plib_sercom5_usart.o
 .debug_aranges
                0x0000000000000340      0x118 build/default/production/_ext/504274921/plib_sercom3_usart.o
 .debug_aranges
                0x0000000000000458       0x70 build/default/production/_ext/1827571544/plib_systick.o
 .debug_aranges
                0x00000000000004c8       0x70 build/default/production/_ext/829342655/plib_tc4.o
 .debug_aranges
                0x0000000000000538       0x70 build/default/production/_ext/829342655/plib_tc3.o
 .debug_aranges
                0x00000000000005a8       0x28 build/default/production/_ext/1171490990/startup_xc32.o
 .debug_aranges
                0x00000000000005d0       0x28 build/default/production/_ext/1171490990/exceptions.o
 .debug_aranges
                0x00000000000005f8       0x20 build/default/production/_ext/1171490990/interrupts.o
 .debug_aranges
                0x0000000000000618       0x20 build/default/production/_ext/1171490990/initialization.o
 .debug_aranges
                0x0000000000000638       0x40 build/default/production/_ext/1360937237/main.o
 .debug_aranges
                0x0000000000000678       0x28 build/default/production/AppTasks.o
 .debug_aranges
                0x00000000000006a0       0x28 build/default/production/LEDTasks.o
 .debug_aranges
                0x00000000000006c8       0x28 c:/program files/microchip/xc32/v4.45/bin/bin/../../lib/gcc/pic32c/8.3.1/../../../../pic32c/lib/thumb/v6-m/nofp\libpic32c.a(data_init.o)
 .debug_aranges
                0x00000000000006f0       0x20 c:/program files/microchip/xc32/v4.45/bin/bin/../../lib/gcc/pic32c/8.3.1/../../../../pic32c/lib/thumb/v6-m/nofp\libc-size-musl.a(memcpy.o)
 .debug_aranges
                0x0000000000000710       0x20 c:/program files/microchip/xc32/v4.45/bin/bin/../../lib/gcc/pic32c/8.3.1/../../../../pic32c/lib/thumb/v6-m/nofp\libc-size-musl.a(strlen.o)
 .debug_aranges
                0x0000000000000730       0x28 c:/program files/microchip/xc32/v4.45/bin/bin/../../lib/gcc/pic32c/8.3.1/../../../../pic32c/lib/thumb/v6-m/nofp\libc-musl.a(__libc_start_main.o)
 .debug_aranges
                0x0000000000000758       0x18 c:/program files/microchip/xc32/v4.45/bin/bin/../../lib/gcc/pic32c/8.3.1/../../../../pic32c/lib/thumb/v6-m/nofp\libc-musl.a(libc.o)
 .debug_aranges
                0x0000000000000770       0x28 c:/program files/microchip/xc32/v4.45/bin/bin/../../lib/gcc/pic32c/8.3.1/../../../../pic32c/lib/thumb/v6-m/nofp\libc-musl.a(__sio_sprintf_dn.o)
 .debug_aranges
                0x0000000000000798       0x20 c:/program files/microchip/xc32/v4.45/bin/bin/../../lib/gcc/pic32c/8.3.1/../../../../pic32c/lib/thumb/v6-m/nofp\libc-musl.a(__fmt_d.o)
 .debug_aranges
                0x00000000000007b8       0x20 c:/program files/microchip/xc32/v4.45/bin/bin/../../lib/gcc/pic32c/8.3.1/../../../../pic32c/lib/thumb/v6-m/nofp\libc-musl.a(__pop_int.o)
 .debug_aranges
                0x00000000000007d8       0x20 c:/program files/microchip/xc32/v4.45/bin/bin/../../lib/gcc/pic32c/8.3.1/../../../../pic32c/lib/thumb/v6-m/nofp\libc-musl.a(__pop_ptr.o)
 .debug_aranges
                0x00000000000007f8       0x50 c:/program files/microchip/xc32/v4.45/bin/bin/../../lib/gcc/pic32c/8.3.1/../../../../pic32c/lib/thumb/v6-m/nofp\libc-musl.a(__printf_core.o)
 .debug_aranges
                0x0000000000000848       0x20 c:/program files/microchip/xc32/v4.45/bin/bin/../../lib/gcc/pic32c/8.3.1/../../../../pic32c/lib/thumb/v6-m/nofp\libc-musl.a(atoi.o)
 .debug_aranges
                0x0000000000000868       0x28 c:/program files/microchip/xc32/v4.45/bin/bin/../../lib/gcc/pic32c/8.3.1/../../../../pic32c/lib/thumb/v6-m/nofp\libc-musl.a(tolower.o)
 .debug_aranges
                0x0000000000000890       0x18 c:/program files/microchip/xc32/v4.45/bin/bin/../../lib/gcc/pic32c/8.3.1/../../../../pic32c/lib/thumb/v6-m/nofp\libc-musl.a(__environ.o)
 .debug_aranges
                0x00000000000008a8       0x18 c:/program files/microchip/xc32/v4.45/bin/bin/../../lib/gcc/pic32c/8.3.1/../../../../pic32c/lib/thumb/v6-m/nofp\libc-musl.a(__errno_location.o)
 .debug_aranges
                0x00000000000008c0       0x20 c:/program files/microchip/xc32/v4.45/bin/bin/../../lib/gcc/pic32c/8.3.1/../../../../pic32c/lib/thumb/v6-m/nofp\libc-musl.a(__int_vsprintf.o)
 .debug_aranges
                0x00000000000008e0       0x20 c:/program files/microchip/xc32/v4.45/bin/bin/../../lib/gcc/pic32c/8.3.1/../../../../pic32c/lib/thumb/v6-m/nofp\libc-musl.a(__cvt_u.o)
 .debug_aranges
                0x0000000000000900       0x20 c:/program files/microchip/xc32/v4.45/bin/bin/../../lib/gcc/pic32c/8.3.1/../../../../pic32c/lib/thumb/v6-m/nofp\libc-musl.a(__pop_float.o)
 .debug_aranges
                0x0000000000000920       0x20 c:/program files/microchip/xc32/v4.45/bin/bin/../../lib/gcc/pic32c/8.3.1/../../../../pic32c/lib/thumb/v6-m/nofp\libc-musl.a(__int_vsnprintf.o)
 .debug_aranges
                0x0000000000000940       0x20 c:/program files/microchip/xc32/v4.45/bin/bin/../../lib/gcc/pic32c/8.3.1/../../../../pic32c/lib/thumb/v6-m/nofp\libc-musl.a(__int_vfprintf.o)
 .debug_aranges
                0x0000000000000960       0x20 c:/program files/microchip/xc32/v4.45/bin/bin/../../lib/gcc/pic32c/8.3.1/thumb/v6-m/nofp\libgcc.a(_aeabi_uldivmod.o)
 .debug_aranges
                0x0000000000000980       0x20 c:/program files/microchip/xc32/v4.45/bin/bin/../../lib/gcc/pic32c/8.3.1/thumb/v6-m/nofp\libgcc.a(_udivmoddi4.o)
 .debug_aranges
                0x00000000000009a0       0x20 c:/program files/microchip/xc32/v4.45/bin/bin/../../lib/gcc/pic32c/8.3.1/thumb/v6-m/nofp\libgcc.a(_dvmd_tls.o)
 .debug_aranges
                0x00000000000009c0       0x20 c:/program files/microchip/xc32/v4.45/bin/bin/../../lib/gcc/pic32c/8.3.1/thumb/v6-m/nofp\libgcc.a(_lshrdi3.o)
 .debug_aranges
                0x00000000000009e0       0x20 c:/program files/microchip/xc32/v4.45/bin/bin/../../lib/gcc/pic32c/8.3.1/thumb/v6-m/nofp\libgcc.a(_ashldi3.o)
 .debug_aranges
                0x0000000000000a00       0x20 c:/program files/microchip/xc32/v4.45/bin/bin/../../lib/gcc/pic32c/8.3.1/thumb/v6-m/nofp\libgcc.a(_clzdi2.o)
 .debug_aranges
                0x0000000000000a20       0x20 c:/program files/microchip/xc32/v4.45/bin/bin/../../lib/gcc/pic32c/8.3.1/thumb/v6-m/nofp\libgcc.a(_clzsi2.o)
 .debug_aranges
                0x0000000000000a40       0x20 c:/program files/microchip/xc32/v4.45/bin/bin/../../lib/gcc/pic32c/8.3.1/../../../../pic32c/lib/thumb/v6-m/nofp\libc-size-musl.a(memset.o)
 .debug_aranges
                0x0000000000000a60       0x20 c:/program files/microchip/xc32/v4.45/bin/bin/../../lib/gcc/pic32c/8.3.1/../../../../pic32c/lib/thumb/v6-m/nofp\libpic32c.a(pic32_data_init_clear.o)
 .debug_aranges
                0x0000000000000a80       0x20 c:/program files/microchip/xc32/v4.45/bin/bin/../../lib/gcc/pic32c/8.3.1/../../../../pic32c/lib/thumb/v6-m/nofp\libpic32c.a(pic32_data_init_copy.o)

.debug_ranges   0x0000000000000000      0x7f8
 .debug_ranges  0x0000000000000000       0x68 build/default/production/_ext/60163342/plib_adc.o
 .debug_ranges  0x0000000000000068       0x28 build/default/production/_ext/1984496892/plib_clock.o
 .debug_ranges  0x0000000000000090       0x58 build/default/production/_ext/1865468468/plib_nvic.o
 .debug_ranges  0x00000000000000e8       0x90 build/default/production/_ext/1593096446/plib_nvmctrl.o
 .debug_ranges  0x0000000000000178       0x60 build/default/production/_ext/1865521619/plib_port.o
 .debug_ranges  0x00000000000001d8      0x150 build/default/production/_ext/504274921/plib_sercom5_usart.o
 .debug_ranges  0x0000000000000328      0x150 build/default/production/_ext/504274921/plib_sercom3_usart.o
 .debug_ranges  0x0000000000000478       0x60 build/default/production/_ext/1827571544/plib_systick.o
 .debug_ranges  0x00000000000004d8       0x60 build/default/production/_ext/829342655/plib_tc4.o
 .debug_ranges  0x0000000000000538       0x60 build/default/production/_ext/829342655/plib_tc3.o
 .debug_ranges  0x0000000000000598       0x18 build/default/production/_ext/1171490990/startup_xc32.o
 .debug_ranges  0x00000000000005b0       0x18 build/default/production/_ext/1171490990/exceptions.o
 .debug_ranges  0x00000000000005c8       0x10 build/default/production/_ext/1171490990/interrupts.o
 .debug_ranges  0x00000000000005d8       0x10 build/default/production/_ext/1171490990/initialization.o
 .debug_ranges  0x00000000000005e8       0x30 build/default/production/_ext/1360937237/main.o
 .debug_ranges  0x0000000000000618       0x18 build/default/production/AppTasks.o
 .debug_ranges  0x0000000000000630       0x18 build/default/production/LEDTasks.o
 .debug_ranges  0x0000000000000648       0x18 c:/program files/microchip/xc32/v4.45/bin/bin/../../lib/gcc/pic32c/8.3.1/../../../../pic32c/lib/thumb/v6-m/nofp\libpic32c.a(data_init.o)
 .debug_ranges  0x0000000000000660       0x10 c:/program files/microchip/xc32/v4.45/bin/bin/../../lib/gcc/pic32c/8.3.1/../../../../pic32c/lib/thumb/v6-m/nofp\libc-size-musl.a(memcpy.o)
 .debug_ranges  0x0000000000000670       0x10 c:/program files/microchip/xc32/v4.45/bin/bin/../../lib/gcc/pic32c/8.3.1/../../../../pic32c/lib/thumb/v6-m/nofp\libc-size-musl.a(strlen.o)
 .debug_ranges  0x0000000000000680       0x30 c:/program files/microchip/xc32/v4.45/bin/bin/../../lib/gcc/pic32c/8.3.1/../../../../pic32c/lib/thumb/v6-m/nofp\libc-musl.a(__libc_start_main.o)
 .debug_ranges  0x00000000000006b0       0x18 c:/program files/microchip/xc32/v4.45/bin/bin/../../lib/gcc/pic32c/8.3.1/../../../../pic32c/lib/thumb/v6-m/nofp\libc-musl.a(__sio_sprintf_dn.o)
 .debug_ranges  0x00000000000006c8       0x10 c:/program files/microchip/xc32/v4.45/bin/bin/../../lib/gcc/pic32c/8.3.1/../../../../pic32c/lib/thumb/v6-m/nofp\libc-musl.a(__fmt_d.o)
 .debug_ranges  0x00000000000006d8       0x10 c:/program files/microchip/xc32/v4.45/bin/bin/../../lib/gcc/pic32c/8.3.1/../../../../pic32c/lib/thumb/v6-m/nofp\libc-musl.a(__pop_int.o)
 .debug_ranges  0x00000000000006e8       0x10 c:/program files/microchip/xc32/v4.45/bin/bin/../../lib/gcc/pic32c/8.3.1/../../../../pic32c/lib/thumb/v6-m/nofp\libc-musl.a(__pop_ptr.o)
 .debug_ranges  0x00000000000006f8       0x58 c:/program files/microchip/xc32/v4.45/bin/bin/../../lib/gcc/pic32c/8.3.1/../../../../pic32c/lib/thumb/v6-m/nofp\libc-musl.a(__printf_core.o)
 .debug_ranges  0x0000000000000750       0x10 c:/program files/microchip/xc32/v4.45/bin/bin/../../lib/gcc/pic32c/8.3.1/../../../../pic32c/lib/thumb/v6-m/nofp\libc-musl.a(atoi.o)
 .debug_ranges  0x0000000000000760       0x18 c:/program files/microchip/xc32/v4.45/bin/bin/../../lib/gcc/pic32c/8.3.1/../../../../pic32c/lib/thumb/v6-m/nofp\libc-musl.a(tolower.o)
 .debug_ranges  0x0000000000000778       0x10 c:/program files/microchip/xc32/v4.45/bin/bin/../../lib/gcc/pic32c/8.3.1/../../../../pic32c/lib/thumb/v6-m/nofp\libc-musl.a(__int_vsprintf.o)
 .debug_ranges  0x0000000000000788       0x10 c:/program files/microchip/xc32/v4.45/bin/bin/../../lib/gcc/pic32c/8.3.1/../../../../pic32c/lib/thumb/v6-m/nofp\libc-musl.a(__cvt_u.o)
 .debug_ranges  0x0000000000000798       0x10 c:/program files/microchip/xc32/v4.45/bin/bin/../../lib/gcc/pic32c/8.3.1/../../../../pic32c/lib/thumb/v6-m/nofp\libc-musl.a(__pop_float.o)
 .debug_ranges  0x00000000000007a8       0x10 c:/program files/microchip/xc32/v4.45/bin/bin/../../lib/gcc/pic32c/8.3.1/../../../../pic32c/lib/thumb/v6-m/nofp\libc-musl.a(__int_vsnprintf.o)
 .debug_ranges  0x00000000000007b8       0x10 c:/program files/microchip/xc32/v4.45/bin/bin/../../lib/gcc/pic32c/8.3.1/../../../../pic32c/lib/thumb/v6-m/nofp\libc-musl.a(__int_vfprintf.o)
 .debug_ranges  0x00000000000007c8       0x10 c:/program files/microchip/xc32/v4.45/bin/bin/../../lib/gcc/pic32c/8.3.1/../../../../pic32c/lib/thumb/v6-m/nofp\libc-size-musl.a(memset.o)
 .debug_ranges  0x00000000000007d8       0x10 c:/program files/microchip/xc32/v4.45/bin/bin/../../lib/gcc/pic32c/8.3.1/../../../../pic32c/lib/thumb/v6-m/nofp\libpic32c.a(pic32_data_init_clear.o)
 .debug_ranges  0x00000000000007e8       0x10 c:/program files/microchip/xc32/v4.45/bin/bin/../../lib/gcc/pic32c/8.3.1/../../../../pic32c/lib/thumb/v6-m/nofp\libpic32c.a(pic32_data_init_copy.o)

.debug_line     0x0000000000000000     0x5839
 .debug_line    0x0000000000000000      0x30d build/default/production/_ext/60163342/plib_adc.o
 .debug_line    0x000000000000030d      0x1ca build/default/production/_ext/1984496892/plib_clock.o
 .debug_line    0x00000000000004d7      0x32e build/default/production/_ext/1865468468/plib_nvic.o
 .debug_line    0x0000000000000805      0x3b9 build/default/production/_ext/1593096446/plib_nvmctrl.o
 .debug_line    0x0000000000000bbe      0x322 build/default/production/_ext/1865521619/plib_port.o
 .debug_line    0x0000000000000ee0      0x954 build/default/production/_ext/504274921/plib_sercom5_usart.o
 .debug_line    0x0000000000001834      0x954 build/default/production/_ext/504274921/plib_sercom3_usart.o
 .debug_line    0x0000000000002188      0x286 build/default/production/_ext/1827571544/plib_systick.o
 .debug_line    0x000000000000240e      0x2d2 build/default/production/_ext/829342655/plib_tc4.o
 .debug_line    0x00000000000026e0      0x2d2 build/default/production/_ext/829342655/plib_tc3.o
 .debug_line    0x00000000000029b2      0x101 build/default/production/_ext/1171490990/startup_xc32.o
 .debug_line    0x0000000000002ab3       0x6d build/default/production/_ext/1171490990/exceptions.o
 .debug_line    0x0000000000002b20       0xb6 build/default/production/_ext/1171490990/interrupts.o
 .debug_line    0x0000000000002bd6       0xf4 build/default/production/_ext/1171490990/initialization.o
 .debug_line    0x0000000000002cca      0x25d build/default/production/_ext/1360937237/main.o
 .debug_line    0x0000000000002f27      0x141 build/default/production/AppTasks.o
 .debug_line    0x0000000000003068      0x177 build/default/production/LEDTasks.o
 .debug_line    0x00000000000031df       0x8e c:/program files/microchip/xc32/v4.45/bin/bin/../../lib/gcc/pic32c/8.3.1/../../../../pic32c/lib/thumb/v6-m/nofp\libpic32c.a(data_init.o)
 .debug_line    0x000000000000326d       0xee c:/program files/microchip/xc32/v4.45/bin/bin/../../lib/gcc/pic32c/8.3.1/../../../../pic32c/lib/thumb/v6-m/nofp\libc-size-musl.a(memcpy.o)
 .debug_line    0x000000000000335b       0xee c:/program files/microchip/xc32/v4.45/bin/bin/../../lib/gcc/pic32c/8.3.1/../../../../pic32c/lib/thumb/v6-m/nofp\libc-size-musl.a(strlen.o)
 .debug_line    0x0000000000003449      0x1bc c:/program files/microchip/xc32/v4.45/bin/bin/../../lib/gcc/pic32c/8.3.1/../../../../pic32c/lib/thumb/v6-m/nofp\libc-musl.a(__libc_start_main.o)
 .debug_line    0x0000000000003605       0xb5 c:/program files/microchip/xc32/v4.45/bin/bin/../../lib/gcc/pic32c/8.3.1/../../../../pic32c/lib/thumb/v6-m/nofp\libc-musl.a(libc.o)
 .debug_line    0x00000000000036ba      0x1a0 c:/program files/microchip/xc32/v4.45/bin/bin/../../lib/gcc/pic32c/8.3.1/../../../../pic32c/lib/thumb/v6-m/nofp\libc-musl.a(__sio_sprintf_dn.o)
 .debug_line    0x000000000000385a      0x20b c:/program files/microchip/xc32/v4.45/bin/bin/../../lib/gcc/pic32c/8.3.1/../../../../pic32c/lib/thumb/v6-m/nofp\libc-musl.a(__fmt_d.o)
 .debug_line    0x0000000000003a65      0x211 c:/program files/microchip/xc32/v4.45/bin/bin/../../lib/gcc/pic32c/8.3.1/../../../../pic32c/lib/thumb/v6-m/nofp\libc-musl.a(__pop_int.o)
 .debug_line    0x0000000000003c76      0x1c8 c:/program files/microchip/xc32/v4.45/bin/bin/../../lib/gcc/pic32c/8.3.1/../../../../pic32c/lib/thumb/v6-m/nofp\libc-musl.a(__pop_ptr.o)
 .debug_line    0x0000000000003e3e      0x6c7 c:/program files/microchip/xc32/v4.45/bin/bin/../../lib/gcc/pic32c/8.3.1/../../../../pic32c/lib/thumb/v6-m/nofp\libc-musl.a(__printf_core.o)
 .debug_line    0x0000000000004505      0x173 c:/program files/microchip/xc32/v4.45/bin/bin/../../lib/gcc/pic32c/8.3.1/../../../../pic32c/lib/thumb/v6-m/nofp\libc-musl.a(atoi.o)
 .debug_line    0x0000000000004678      0x15c c:/program files/microchip/xc32/v4.45/bin/bin/../../lib/gcc/pic32c/8.3.1/../../../../pic32c/lib/thumb/v6-m/nofp\libc-musl.a(tolower.o)
 .debug_line    0x00000000000047d4       0xfb c:/program files/microchip/xc32/v4.45/bin/bin/../../lib/gcc/pic32c/8.3.1/../../../../pic32c/lib/thumb/v6-m/nofp\libc-musl.a(__environ.o)
 .debug_line    0x00000000000048cf       0x9a c:/program files/microchip/xc32/v4.45/bin/bin/../../lib/gcc/pic32c/8.3.1/../../../../pic32c/lib/thumb/v6-m/nofp\libc-musl.a(__errno_location.o)
 .debug_line    0x0000000000004969      0x153 c:/program files/microchip/xc32/v4.45/bin/bin/../../lib/gcc/pic32c/8.3.1/../../../../pic32c/lib/thumb/v6-m/nofp\libc-musl.a(__int_vsprintf.o)
 .debug_line    0x0000000000004abc      0x1d7 c:/program files/microchip/xc32/v4.45/bin/bin/../../lib/gcc/pic32c/8.3.1/../../../../pic32c/lib/thumb/v6-m/nofp\libc-musl.a(__cvt_u.o)
 .debug_line    0x0000000000004c93      0x166 c:/program files/microchip/xc32/v4.45/bin/bin/../../lib/gcc/pic32c/8.3.1/../../../../pic32c/lib/thumb/v6-m/nofp\libc-musl.a(__pop_float.o)
 .debug_line    0x0000000000004df9      0x1c7 c:/program files/microchip/xc32/v4.45/bin/bin/../../lib/gcc/pic32c/8.3.1/../../../../pic32c/lib/thumb/v6-m/nofp\libc-musl.a(__int_vsnprintf.o)
 .debug_line    0x0000000000004fc0      0x172 c:/program files/microchip/xc32/v4.45/bin/bin/../../lib/gcc/pic32c/8.3.1/../../../../pic32c/lib/thumb/v6-m/nofp\libc-musl.a(__int_vfprintf.o)
 .debug_line    0x0000000000005132       0x9c c:/program files/microchip/xc32/v4.45/bin/bin/../../lib/gcc/pic32c/8.3.1/thumb/v6-m/nofp\libgcc.a(_aeabi_uldivmod.o)
 .debug_line    0x00000000000051ce      0x188 c:/program files/microchip/xc32/v4.45/bin/bin/../../lib/gcc/pic32c/8.3.1/thumb/v6-m/nofp\libgcc.a(_udivmoddi4.o)
 .debug_line    0x0000000000005356       0x91 c:/program files/microchip/xc32/v4.45/bin/bin/../../lib/gcc/pic32c/8.3.1/thumb/v6-m/nofp\libgcc.a(_dvmd_tls.o)
 .debug_line    0x00000000000053e7       0x9c c:/program files/microchip/xc32/v4.45/bin/bin/../../lib/gcc/pic32c/8.3.1/thumb/v6-m/nofp\libgcc.a(_lshrdi3.o)
 .debug_line    0x0000000000005483       0x9c c:/program files/microchip/xc32/v4.45/bin/bin/../../lib/gcc/pic32c/8.3.1/thumb/v6-m/nofp\libgcc.a(_ashldi3.o)
 .debug_line    0x000000000000551f       0x9b c:/program files/microchip/xc32/v4.45/bin/bin/../../lib/gcc/pic32c/8.3.1/thumb/v6-m/nofp\libgcc.a(_clzdi2.o)
 .debug_line    0x00000000000055ba       0xa5 c:/program files/microchip/xc32/v4.45/bin/bin/../../lib/gcc/pic32c/8.3.1/thumb/v6-m/nofp\libgcc.a(_clzsi2.o)
 .debug_line    0x000000000000565f       0xe3 c:/program files/microchip/xc32/v4.45/bin/bin/../../lib/gcc/pic32c/8.3.1/../../../../pic32c/lib/thumb/v6-m/nofp\libc-size-musl.a(memset.o)
 .debug_line    0x0000000000005742       0x6f c:/program files/microchip/xc32/v4.45/bin/bin/../../lib/gcc/pic32c/8.3.1/../../../../pic32c/lib/thumb/v6-m/nofp\libpic32c.a(pic32_data_init_clear.o)
 .debug_line    0x00000000000057b1       0x88 c:/program files/microchip/xc32/v4.45/bin/bin/../../lib/gcc/pic32c/8.3.1/../../../../pic32c/lib/thumb/v6-m/nofp\libpic32c.a(pic32_data_init_copy.o)

.debug_str      0x0000000000000000     0xa8fd
 .debug_str     0x0000000000000000      0x8ab build/default/production/_ext/60163342/plib_adc.o
 .debug_str     0x00000000000008ab      0x5b8 build/default/production/_ext/1984496892/plib_clock.o
 .debug_str     0x0000000000000e63      0x5f4 build/default/production/_ext/1865468468/plib_nvic.o
 .debug_str     0x0000000000001457      0x55b build/default/production/_ext/1593096446/plib_nvmctrl.o
 .debug_str     0x00000000000019b2      0x791 build/default/production/_ext/1865521619/plib_port.o
 .debug_str     0x0000000000002143      0xd8c build/default/production/_ext/504274921/plib_sercom5_usart.o
 .debug_str     0x0000000000002ecf      0xd8c build/default/production/_ext/504274921/plib_sercom3_usart.o
 .debug_str     0x0000000000003c5b      0x418 build/default/production/_ext/1827571544/plib_systick.o
 .debug_str     0x0000000000004073      0x597 build/default/production/_ext/829342655/plib_tc4.o
 .debug_str     0x000000000000460a      0x597 build/default/production/_ext/829342655/plib_tc3.o
 .debug_str     0x0000000000004ba1      0x300 build/default/production/_ext/1171490990/startup_xc32.o
 .debug_str     0x0000000000004ea1      0x2c8 build/default/production/_ext/1171490990/exceptions.o
 .debug_str     0x0000000000005169      0x5ea build/default/production/_ext/1171490990/interrupts.o
 .debug_str     0x0000000000005753      0x39c build/default/production/_ext/1171490990/initialization.o
 .debug_str     0x0000000000005aef      0x5d6 build/default/production/_ext/1360937237/main.o
 .debug_str     0x00000000000060c5      0x35f build/default/production/AppTasks.o
 .debug_str     0x0000000000006424      0x462 build/default/production/LEDTasks.o
 .debug_str     0x0000000000006886      0x1eb c:/program files/microchip/xc32/v4.45/bin/bin/../../lib/gcc/pic32c/8.3.1/../../../../pic32c/lib/thumb/v6-m/nofp\libpic32c.a(data_init.o)
 .debug_str     0x0000000000006a71      0x225 c:/program files/microchip/xc32/v4.45/bin/bin/../../lib/gcc/pic32c/8.3.1/../../../../pic32c/lib/thumb/v6-m/nofp\libc-size-musl.a(memcpy.o)
 .debug_str     0x0000000000006c96      0x217 c:/program files/microchip/xc32/v4.45/bin/bin/../../lib/gcc/pic32c/8.3.1/../../../../pic32c/lib/thumb/v6-m/nofp\libc-size-musl.a(strlen.o)
 .debug_str     0x0000000000006ead      0x3ca c:/program files/microchip/xc32/v4.45/bin/bin/../../lib/gcc/pic32c/8.3.1/../../../../pic32c/lib/thumb/v6-m/nofp\libc-musl.a(__libc_start_main.o)
 .debug_str     0x0000000000007277      0x335 c:/program files/microchip/xc32/v4.45/bin/bin/../../lib/gcc/pic32c/8.3.1/../../../../pic32c/lib/thumb/v6-m/nofp\libc-musl.a(libc.o)
 .debug_str     0x00000000000075ac      0x2ed c:/program files/microchip/xc32/v4.45/bin/bin/../../lib/gcc/pic32c/8.3.1/../../../../pic32c/lib/thumb/v6-m/nofp\libc-musl.a(__sio_sprintf_dn.o)
 .debug_str     0x0000000000007899      0x2f5 c:/program files/microchip/xc32/v4.45/bin/bin/../../lib/gcc/pic32c/8.3.1/../../../../pic32c/lib/thumb/v6-m/nofp\libc-musl.a(__fmt_d.o)
 .debug_str     0x0000000000007b8e      0x2cb c:/program files/microchip/xc32/v4.45/bin/bin/../../lib/gcc/pic32c/8.3.1/../../../../pic32c/lib/thumb/v6-m/nofp\libc-musl.a(__pop_int.o)
 .debug_str     0x0000000000007e59      0x2cd c:/program files/microchip/xc32/v4.45/bin/bin/../../lib/gcc/pic32c/8.3.1/../../../../pic32c/lib/thumb/v6-m/nofp\libc-musl.a(__pop_ptr.o)
 .debug_str     0x0000000000008126      0x3e7 c:/program files/microchip/xc32/v4.45/bin/bin/../../lib/gcc/pic32c/8.3.1/../../../../pic32c/lib/thumb/v6-m/nofp\libc-musl.a(__printf_core.o)
 .debug_str     0x000000000000850d      0x21c c:/program files/microchip/xc32/v4.45/bin/bin/../../lib/gcc/pic32c/8.3.1/../../../../pic32c/lib/thumb/v6-m/nofp\libc-musl.a(atoi.o)
 .debug_str     0x0000000000008729      0x249 c:/program files/microchip/xc32/v4.45/bin/bin/../../lib/gcc/pic32c/8.3.1/../../../../pic32c/lib/thumb/v6-m/nofp\libc-musl.a(tolower.o)
 .debug_str     0x0000000000008972      0x235 c:/program files/microchip/xc32/v4.45/bin/bin/../../lib/gcc/pic32c/8.3.1/../../../../pic32c/lib/thumb/v6-m/nofp\libc-musl.a(__environ.o)
 .debug_str     0x0000000000008ba7      0x229 c:/program files/microchip/xc32/v4.45/bin/bin/../../lib/gcc/pic32c/8.3.1/../../../../pic32c/lib/thumb/v6-m/nofp\libc-musl.a(__errno_location.o)
 .debug_str     0x0000000000008dd0      0x2a6 c:/program files/microchip/xc32/v4.45/bin/bin/../../lib/gcc/pic32c/8.3.1/../../../../pic32c/lib/thumb/v6-m/nofp\libc-musl.a(__int_vsprintf.o)
 .debug_str     0x0000000000009076      0x2b1 c:/program files/microchip/xc32/v4.45/bin/bin/../../lib/gcc/pic32c/8.3.1/../../../../pic32c/lib/thumb/v6-m/nofp\libc-musl.a(__cvt_u.o)
 .debug_str     0x0000000000009327      0x2c0 c:/program files/microchip/xc32/v4.45/bin/bin/../../lib/gcc/pic32c/8.3.1/../../../../pic32c/lib/thumb/v6-m/nofp\libc-musl.a(__pop_float.o)
 .debug_str     0x00000000000095e7      0x2f4 c:/program files/microchip/xc32/v4.45/bin/bin/../../lib/gcc/pic32c/8.3.1/../../../../pic32c/lib/thumb/v6-m/nofp\libc-musl.a(__int_vsnprintf.o)
 .debug_str     0x00000000000098db      0x2e9 c:/program files/microchip/xc32/v4.45/bin/bin/../../lib/gcc/pic32c/8.3.1/../../../../pic32c/lib/thumb/v6-m/nofp\libc-musl.a(__int_vfprintf.o)
 .debug_str     0x0000000000009bc4       0xd6 c:/program files/microchip/xc32/v4.45/bin/bin/../../lib/gcc/pic32c/8.3.1/thumb/v6-m/nofp\libgcc.a(_aeabi_uldivmod.o)
 .debug_str     0x0000000000009c9a      0x27c c:/program files/microchip/xc32/v4.45/bin/bin/../../lib/gcc/pic32c/8.3.1/thumb/v6-m/nofp\libgcc.a(_udivmoddi4.o)
 .debug_str     0x0000000000009f16       0xd6 c:/program files/microchip/xc32/v4.45/bin/bin/../../lib/gcc/pic32c/8.3.1/thumb/v6-m/nofp\libgcc.a(_dvmd_tls.o)
 .debug_str     0x0000000000009fec       0xd6 c:/program files/microchip/xc32/v4.45/bin/bin/../../lib/gcc/pic32c/8.3.1/thumb/v6-m/nofp\libgcc.a(_lshrdi3.o)
 .debug_str     0x000000000000a0c2       0xd6 c:/program files/microchip/xc32/v4.45/bin/bin/../../lib/gcc/pic32c/8.3.1/thumb/v6-m/nofp\libgcc.a(_ashldi3.o)
 .debug_str     0x000000000000a198       0xd6 c:/program files/microchip/xc32/v4.45/bin/bin/../../lib/gcc/pic32c/8.3.1/thumb/v6-m/nofp\libgcc.a(_clzdi2.o)
 .debug_str     0x000000000000a26e       0xd6 c:/program files/microchip/xc32/v4.45/bin/bin/../../lib/gcc/pic32c/8.3.1/thumb/v6-m/nofp\libgcc.a(_clzsi2.o)
 .debug_str     0x000000000000a344      0x211 c:/program files/microchip/xc32/v4.45/bin/bin/../../lib/gcc/pic32c/8.3.1/../../../../pic32c/lib/thumb/v6-m/nofp\libc-size-musl.a(memset.o)
 .debug_str     0x000000000000a555      0x1d5 c:/program files/microchip/xc32/v4.45/bin/bin/../../lib/gcc/pic32c/8.3.1/../../../../pic32c/lib/thumb/v6-m/nofp\libpic32c.a(pic32_data_init_clear.o)
 .debug_str     0x000000000000a72a      0x1d3 c:/program files/microchip/xc32/v4.45/bin/bin/../../lib/gcc/pic32c/8.3.1/../../../../pic32c/lib/thumb/v6-m/nofp\libpic32c.a(pic32_data_init_copy.o)

.debug_frame    0x0000000000000000     0x18e8
 .debug_frame   0x0000000000000000      0x180 build/default/production/_ext/60163342/plib_adc.o
 .debug_frame   0x0000000000000180       0x84 build/default/production/_ext/1984496892/plib_clock.o
 .debug_frame   0x0000000000000204      0x14c build/default/production/_ext/1865468468/plib_nvic.o
 .debug_frame   0x0000000000000350      0x220 build/default/production/_ext/1593096446/plib_nvmctrl.o
 .debug_frame   0x0000000000000570      0x16c build/default/production/_ext/1865521619/plib_port.o
 .debug_frame   0x00000000000006dc      0x3f8 build/default/production/_ext/504274921/plib_sercom5_usart.o
 .debug_frame   0x0000000000000ad4      0x3f8 build/default/production/_ext/504274921/plib_sercom3_usart.o
 .debug_frame   0x0000000000000ecc      0x150 build/default/production/_ext/1827571544/plib_systick.o
 .debug_frame   0x000000000000101c      0x158 build/default/production/_ext/829342655/plib_tc4.o
 .debug_frame   0x0000000000001174      0x158 build/default/production/_ext/829342655/plib_tc3.o
 .debug_frame   0x00000000000012cc       0x38 build/default/production/_ext/1171490990/startup_xc32.o
 .debug_frame   0x0000000000001304       0x48 build/default/production/_ext/1171490990/exceptions.o
 .debug_frame   0x000000000000134c       0x20 build/default/production/_ext/1171490990/interrupts.o
 .debug_frame   0x000000000000136c       0x30 build/default/production/_ext/1171490990/initialization.o
 .debug_frame   0x000000000000139c       0xac build/default/production/_ext/1360937237/main.o
 .debug_frame   0x0000000000001448       0x4c build/default/production/AppTasks.o
 .debug_frame   0x0000000000001494       0x4c build/default/production/LEDTasks.o
 .debug_frame   0x00000000000014e0       0x38 c:/program files/microchip/xc32/v4.45/bin/bin/../../lib/gcc/pic32c/8.3.1/../../../../pic32c/lib/thumb/v6-m/nofp\libpic32c.a(data_init.o)
 .debug_frame   0x0000000000001518       0x28 c:/program files/microchip/xc32/v4.45/bin/bin/../../lib/gcc/pic32c/8.3.1/../../../../pic32c/lib/thumb/v6-m/nofp\libc-size-musl.a(memcpy.o)
 .debug_frame   0x0000000000001540       0x20 c:/program files/microchip/xc32/v4.45/bin/bin/../../lib/gcc/pic32c/8.3.1/../../../../pic32c/lib/thumb/v6-m/nofp\libc-size-musl.a(strlen.o)
 .debug_frame   0x0000000000001560       0x38 c:/program files/microchip/xc32/v4.45/bin/bin/../../lib/gcc/pic32c/8.3.1/../../../../pic32c/lib/thumb/v6-m/nofp\libc-musl.a(__libc_start_main.o)
 .debug_frame   0x0000000000001598       0x44 c:/program files/microchip/xc32/v4.45/bin/bin/../../lib/gcc/pic32c/8.3.1/../../../../pic32c/lib/thumb/v6-m/nofp\libc-musl.a(__sio_sprintf_dn.o)
 .debug_frame   0x00000000000015dc       0x30 c:/program files/microchip/xc32/v4.45/bin/bin/../../lib/gcc/pic32c/8.3.1/../../../../pic32c/lib/thumb/v6-m/nofp\libc-musl.a(__fmt_d.o)
 .debug_frame   0x000000000000160c       0x28 c:/program files/microchip/xc32/v4.45/bin/bin/../../lib/gcc/pic32c/8.3.1/../../../../pic32c/lib/thumb/v6-m/nofp\libc-musl.a(__pop_int.o)
 .debug_frame   0x0000000000001634       0x28 c:/program files/microchip/xc32/v4.45/bin/bin/../../lib/gcc/pic32c/8.3.1/../../../../pic32c/lib/thumb/v6-m/nofp\libc-musl.a(__pop_ptr.o)
 .debug_frame   0x000000000000165c       0xc0 c:/program files/microchip/xc32/v4.45/bin/bin/../../lib/gcc/pic32c/8.3.1/../../../../pic32c/lib/thumb/v6-m/nofp\libc-musl.a(__printf_core.o)
 .debug_frame   0x000000000000171c       0x28 c:/program files/microchip/xc32/v4.45/bin/bin/../../lib/gcc/pic32c/8.3.1/../../../../pic32c/lib/thumb/v6-m/nofp\libc-musl.a(atoi.o)
 .debug_frame   0x0000000000001744       0x38 c:/program files/microchip/xc32/v4.45/bin/bin/../../lib/gcc/pic32c/8.3.1/../../../../pic32c/lib/thumb/v6-m/nofp\libc-musl.a(tolower.o)
 .debug_frame   0x000000000000177c       0x28 c:/program files/microchip/xc32/v4.45/bin/bin/../../lib/gcc/pic32c/8.3.1/../../../../pic32c/lib/thumb/v6-m/nofp\libc-musl.a(__int_vsprintf.o)
 .debug_frame   0x00000000000017a4       0x34 c:/program files/microchip/xc32/v4.45/bin/bin/../../lib/gcc/pic32c/8.3.1/../../../../pic32c/lib/thumb/v6-m/nofp\libc-musl.a(__cvt_u.o)
 .debug_frame   0x00000000000017d8       0x20 c:/program files/microchip/xc32/v4.45/bin/bin/../../lib/gcc/pic32c/8.3.1/../../../../pic32c/lib/thumb/v6-m/nofp\libc-musl.a(__pop_float.o)
 .debug_frame   0x00000000000017f8       0x2c c:/program files/microchip/xc32/v4.45/bin/bin/../../lib/gcc/pic32c/8.3.1/../../../../pic32c/lib/thumb/v6-m/nofp\libc-musl.a(__int_vsnprintf.o)
 .debug_frame   0x0000000000001824       0x2c c:/program files/microchip/xc32/v4.45/bin/bin/../../lib/gcc/pic32c/8.3.1/../../../../pic32c/lib/thumb/v6-m/nofp\libc-musl.a(__int_vfprintf.o)
 .debug_frame   0x0000000000001850       0x30 c:/program files/microchip/xc32/v4.45/bin/bin/../../lib/gcc/pic32c/8.3.1/thumb/v6-m/nofp\libgcc.a(_udivmoddi4.o)
 .debug_frame   0x0000000000001880       0x20 c:/program files/microchip/xc32/v4.45/bin/bin/../../lib/gcc/pic32c/8.3.1/../../../../pic32c/lib/thumb/v6-m/nofp\libc-size-musl.a(memset.o)
 .debug_frame   0x00000000000018a0       0x20 c:/program files/microchip/xc32/v4.45/bin/bin/../../lib/gcc/pic32c/8.3.1/../../../../pic32c/lib/thumb/v6-m/nofp\libpic32c.a(pic32_data_init_clear.o)
 .debug_frame   0x00000000000018c0       0x28 c:/program files/microchip/xc32/v4.45/bin/bin/../../lib/gcc/pic32c/8.3.1/../../../../pic32c/lib/thumb/v6-m/nofp\libpic32c.a(pic32_data_init_copy.o)

.note.GNU-stack
                0x0000000000000000        0x0
 .note.GNU-stack
                0x0000000000000000        0x0 c:/program files/microchip/xc32/v4.45/bin/bin/../../lib/gcc/pic32c/8.3.1/../../../../pic32c/lib/thumb/v6-m/nofp\libc-size-musl.a(memcpy.o)
 .note.GNU-stack
                0x0000000000000000        0x0 c:/program files/microchip/xc32/v4.45/bin/bin/../../lib/gcc/pic32c/8.3.1/../../../../pic32c/lib/thumb/v6-m/nofp\libc-size-musl.a(strlen.o)
 .note.GNU-stack
                0x0000000000000000        0x0 c:/program files/microchip/xc32/v4.45/bin/bin/../../lib/gcc/pic32c/8.3.1/../../../../pic32c/lib/thumb/v6-m/nofp\libc-musl.a(__libc_start_main.o)
 .note.GNU-stack
                0x0000000000000000        0x0 c:/program files/microchip/xc32/v4.45/bin/bin/../../lib/gcc/pic32c/8.3.1/../../../../pic32c/lib/thumb/v6-m/nofp\libc-musl.a(libc.o)
 .note.GNU-stack
                0x0000000000000000        0x0 c:/program files/microchip/xc32/v4.45/bin/bin/../../lib/gcc/pic32c/8.3.1/../../../../pic32c/lib/thumb/v6-m/nofp\libc-musl.a(__sio_sprintf_dn.o)
 .note.GNU-stack
                0x0000000000000000        0x0 c:/program files/microchip/xc32/v4.45/bin/bin/../../lib/gcc/pic32c/8.3.1/../../../../pic32c/lib/thumb/v6-m/nofp\libc-musl.a(__fmt_d.o)
 .note.GNU-stack
                0x0000000000000000        0x0 c:/program files/microchip/xc32/v4.45/bin/bin/../../lib/gcc/pic32c/8.3.1/../../../../pic32c/lib/thumb/v6-m/nofp\libc-musl.a(__pop_int.o)
 .note.GNU-stack
                0x0000000000000000        0x0 c:/program files/microchip/xc32/v4.45/bin/bin/../../lib/gcc/pic32c/8.3.1/../../../../pic32c/lib/thumb/v6-m/nofp\libc-musl.a(__pop_ptr.o)
 .note.GNU-stack
                0x0000000000000000        0x0 c:/program files/microchip/xc32/v4.45/bin/bin/../../lib/gcc/pic32c/8.3.1/../../../../pic32c/lib/thumb/v6-m/nofp\libc-musl.a(__printf_core.o)
 .note.GNU-stack
                0x0000000000000000        0x0 c:/program files/microchip/xc32/v4.45/bin/bin/../../lib/gcc/pic32c/8.3.1/../../../../pic32c/lib/thumb/v6-m/nofp\libc-musl.a(atoi.o)
 .note.GNU-stack
                0x0000000000000000        0x0 c:/program files/microchip/xc32/v4.45/bin/bin/../../lib/gcc/pic32c/8.3.1/../../../../pic32c/lib/thumb/v6-m/nofp\libc-musl.a(tolower.o)
 .note.GNU-stack
                0x0000000000000000        0x0 c:/program files/microchip/xc32/v4.45/bin/bin/../../lib/gcc/pic32c/8.3.1/../../../../pic32c/lib/thumb/v6-m/nofp\libc-musl.a(__environ.o)
 .note.GNU-stack
                0x0000000000000000        0x0 c:/program files/microchip/xc32/v4.45/bin/bin/../../lib/gcc/pic32c/8.3.1/../../../../pic32c/lib/thumb/v6-m/nofp\libc-musl.a(__errno_location.o)
 .note.GNU-stack
                0x0000000000000000        0x0 c:/program files/microchip/xc32/v4.45/bin/bin/../../lib/gcc/pic32c/8.3.1/../../../../pic32c/lib/thumb/v6-m/nofp\libc-musl.a(__int_vsprintf.o)
 .note.GNU-stack
                0x0000000000000000        0x0 c:/program files/microchip/xc32/v4.45/bin/bin/../../lib/gcc/pic32c/8.3.1/../../../../pic32c/lib/thumb/v6-m/nofp\libc-musl.a(__cvt_u.o)
 .note.GNU-stack
                0x0000000000000000        0x0 c:/program files/microchip/xc32/v4.45/bin/bin/../../lib/gcc/pic32c/8.3.1/../../../../pic32c/lib/thumb/v6-m/nofp\libc-musl.a(__pop_float.o)
 .note.GNU-stack
                0x0000000000000000        0x0 c:/program files/microchip/xc32/v4.45/bin/bin/../../lib/gcc/pic32c/8.3.1/../../../../pic32c/lib/thumb/v6-m/nofp\libc-musl.a(__int_vsnprintf.o)
 .note.GNU-stack
                0x0000000000000000        0x0 c:/program files/microchip/xc32/v4.45/bin/bin/../../lib/gcc/pic32c/8.3.1/../../../../pic32c/lib/thumb/v6-m/nofp\libc-musl.a(__int_vfprintf.o)
 .note.GNU-stack
                0x0000000000000000        0x0 c:/program files/microchip/xc32/v4.45/bin/bin/../../lib/gcc/pic32c/8.3.1/../../../../pic32c/lib/thumb/v6-m/nofp\libc-size-musl.a(memset.o)

.stack          0x0000000020000658      0x100
 .stack         0x0000000020000658      0x100 stack

.bss.myAppData%1
                0x0000000020000000      0x120
 .bss.myAppData
                0x0000000020000000      0x120 build/default/production/_ext/1360937237/main.o
                0x0000000020000000                myAppData

.bss.SERCOM5_USART_ReadBuffer%2
                0x0000000020000120       0x80
 .bss.SERCOM5_USART_ReadBuffer
                0x0000000020000120       0x80 build/default/production/_ext/504274921/plib_sercom5_usart.o

.bss.SERCOM5_USART_WriteBuffer%3
                0x00000000200001a0       0x80
 .bss.SERCOM5_USART_WriteBuffer
                0x00000000200001a0       0x80 build/default/production/_ext/504274921/plib_sercom5_usart.o

.bss.SERCOM3_USART_ReadBuffer%4
                0x0000000020000220       0x80
 .bss.SERCOM3_USART_ReadBuffer
                0x0000000020000220       0x80 build/default/production/_ext/504274921/plib_sercom3_usart.o

.bss.SERCOM3_USART_WriteBuffer%5
                0x00000000200002a0       0x80
 .bss.SERCOM3_USART_WriteBuffer
                0x00000000200002a0       0x80 build/default/production/_ext/504274921/plib_sercom3_usart.o

.bss%6          0x0000000020000320       0x50
 .bss           0x0000000020000320       0x50 c:/program files/microchip/xc32/v4.45/bin/bin/../../lib/gcc/pic32c/8.3.1/../../../../pic32c/lib/thumb/v6-m/nofp\libc-musl.a(libc.o)
                0x0000000020000320                __progname_full
                0x0000000020000320                program_invocation_name
                0x0000000020000324                program_invocation_short_name
                0x0000000020000324                __progname
                0x0000000020000328                __sysinfo
                0x000000002000032c                __hwcap
                0x0000000020000330                __libc

.bss.sercom5USARTObj%7
                0x0000000020000370       0x40
 .bss.sercom5USARTObj
                0x0000000020000370       0x40 build/default/production/_ext/504274921/plib_sercom5_usart.o

.bss.sercom3USARTObj%8
                0x00000000200003b0       0x40
 .bss.sercom3USARTObj
                0x00000000200003b0       0x40 build/default/production/_ext/504274921/plib_sercom3_usart.o

.bss%9          0x00000000200003f0       0x1c
 .bss           0x00000000200003f0       0x1c c:/program files/microchip/xc32/v4.45/bin/bin/../../lib/gcc/pic32c/8.3.1/thumb/v6-m/nofp/crtbegin.o

.bss.TC4_CallbackObject%10
                0x000000002000040c        0x8
 .bss.TC4_CallbackObject
                0x000000002000040c        0x8 build/default/production/_ext/829342655/plib_tc4.o

.bss.TC3_CallbackObject%11
                0x0000000020000414        0x8
 .bss.TC3_CallbackObject
                0x0000000020000414        0x8 build/default/production/_ext/829342655/plib_tc3.o

.bss.context1%12
                0x000000002000041c        0x4
 .bss.context1  0x000000002000041c        0x4 build/default/production/_ext/1360937237/main.o
                0x000000002000041c                context1

.bss.context2%13
                0x0000000020000420        0x4
 .bss.context2  0x0000000020000420        0x4 build/default/production/_ext/1360937237/main.o
                0x0000000020000420                context2

.bss.context3%14
                0x0000000020000424        0x4
 .bss.context3  0x0000000020000424        0x4 build/default/production/_ext/1360937237/main.o
                0x0000000020000424                context3

.bss.RNPins%15  0x0000000020000428        0x4
 .bss.RNPins    0x0000000020000428        0x4 build/default/production/_ext/1360937237/main.o
                0x0000000020000428                RNPins

.bss%16         0x000000002000042c        0x4
 .bss           0x000000002000042c        0x4 c:/program files/microchip/xc32/v4.45/bin/bin/../../lib/gcc/pic32c/8.3.1/../../../../pic32c/lib/thumb/v6-m/nofp\libpic32c.a(data_init.o)

.bss%17         0x0000000020000430        0x4
 .bss           0x0000000020000430        0x4 c:/program files/microchip/xc32/v4.45/bin/bin/../../lib/gcc/pic32c/8.3.1/../../../../pic32c/lib/thumb/v6-m/nofp\libc-musl.a(__environ.o)
                0x0000000020000430                __environ
                0x0000000020000430                environ
                0x0000000020000430                ___environ
                0x0000000020000430                _environ

.bss%18         0x0000000020000434        0x4
 .bss           0x0000000020000434        0x4 c:/program files/microchip/xc32/v4.45/bin/bin/../../lib/gcc/pic32c/8.3.1/../../../../pic32c/lib/thumb/v6-m/nofp\libc-musl.a(__errno_location.o)
                0x0000000020000434                __errno_val

.bss.RNAppState%19
                0x0000000020000438        0x1
 .bss.RNAppState
                0x0000000020000438        0x1 build/default/production/_ext/1360937237/main.o
                0x0000000020000438                RNAppState

.bss.LedBlinkPattern%20
                0x0000000020000439        0x1
 .bss.LedBlinkPattern
                0x0000000020000439        0x1 build/default/production/LEDTasks.o
                0x0000000020000439                LedBlinkPattern

.bss.count.6585%21
                0x000000002000043a        0x1
 .bss.count.6585
                0x000000002000043a        0x1 build/default/production/LEDTasks.o

.bss.doubleCount.6586%22
                0x000000002000043b        0x1
 .bss.doubleCount.6586
                0x000000002000043b        0x1 build/default/production/LEDTasks.o

.data.myApp%23  0x000000002000043c        0x1
 .data.myApp    0x000000002000043c        0x1 build/default/production/_ext/1360937237/main.o
                0x000000002000043c                myApp

.eh_frame%z1    0x0000000000000000        0x0
 .eh_frame      0x0000000000000000        0x0 c:/program files/microchip/xc32/v4.45/bin/bin/../../lib/gcc/pic32c/8.3.1/thumb/v6-m/nofp/crtbegin.o

.config_00804004.__config_00804004%24
                0x0000000000804004        0x4
 .config_00804004.__config_00804004
                0x0000000000804004        0x4 build/default/production/_ext/1171490990/initialization.o
                0x0000000000804004                __config_00804004

.config_00804000.__config_00804000%25
                0x0000000000804000        0x4
 .config_00804000.__config_00804000
                0x0000000000804000        0x4 build/default/production/_ext/1171490990/initialization.o
                0x0000000000804000                __config_00804000

.text.__printf_core%26
                0x00000000000000e0      0x33c
 .text.__printf_core
                0x00000000000000e0      0x33c c:/program files/microchip/xc32/v4.45/bin/bin/../../lib/gcc/pic32c/8.3.1/../../../../pic32c/lib/thumb/v6-m/nofp\libc-musl.a(__printf_core.o)
                0x00000000000000e0                __printf_core

.text.PORT_Initialize%27
                0x000000000000041c      0x104
 .text.PORT_Initialize
                0x000000000000041c      0x104 build/default/production/_ext/1865521619/plib_port.o
                0x000000000000041c                PORT_Initialize

.text.SERCOM5_USART_InterruptHandler%28
                0x0000000000000520      0x104
 .text.SERCOM5_USART_InterruptHandler
                0x0000000000000520      0x104 build/default/production/_ext/504274921/plib_sercom5_usart.o
                0x0000000000000520                SERCOM5_USART_InterruptHandler

.text.SERCOM3_USART_InterruptHandler%29
                0x0000000000000624      0x104
 .text.SERCOM3_USART_InterruptHandler
                0x0000000000000624      0x104 build/default/production/_ext/504274921/plib_sercom3_usart.o
                0x0000000000000624                SERCOM3_USART_InterruptHandler

.text.SERCOM5_USART_RxPushByte%30
                0x0000000000000728       0xe4
 .text.SERCOM5_USART_RxPushByte
                0x0000000000000728       0xe4 build/default/production/_ext/504274921/plib_sercom5_usart.o

.text.SERCOM3_USART_RxPushByte%31
                0x000000000000080c       0xe4
 .text.SERCOM3_USART_RxPushByte
                0x000000000000080c       0xe4 build/default/production/_ext/504274921/plib_sercom3_usart.o

.text%32        0x00000000000008f0       0xe2
 .text          0x00000000000008f0       0xe2 c:/program files/microchip/xc32/v4.45/bin/bin/../../lib/gcc/pic32c/8.3.1/thumb/v6-m/nofp\libgcc.a(_udivmoddi4.o)
                0x00000000000008f0                __udivmoddi4

.text.__NVIC_SetPriority%33
                0x00000000000009d4       0xdc
 .text.__NVIC_SetPriority
                0x00000000000009d4       0xdc build/default/production/_ext/1865468468/plib_nvic.o

.text.SERCOM5_USART_Initialize%34
                0x0000000000000ab0       0xd4
 .text.SERCOM5_USART_Initialize
                0x0000000000000ab0       0xd4 build/default/production/_ext/504274921/plib_sercom5_usart.o
                0x0000000000000ab0                SERCOM5_USART_Initialize

.text.SERCOM3_USART_Initialize%35
                0x0000000000000b84       0xd4
 .text.SERCOM3_USART_Initialize
                0x0000000000000b84       0xd4 build/default/production/_ext/504274921/plib_sercom3_usart.o
                0x0000000000000b84                SERCOM3_USART_Initialize

.text.InitSystem%36
                0x0000000000000c58       0xc8
 .text.InitSystem
                0x0000000000000c58       0xc8 build/default/production/_ext/1360937237/main.o
                0x0000000000000c58                InitSystem

.text.ADC_Initialize%37
                0x0000000000000d20       0xc4
 .text.ADC_Initialize
                0x0000000000000d20       0xc4 build/default/production/_ext/60163342/plib_adc.o
                0x0000000000000d20                ADC_Initialize

.text.SERCOM5_USART_Read%38
                0x0000000000000de4       0xc4
 .text.SERCOM5_USART_Read
                0x0000000000000de4       0xc4 build/default/production/_ext/504274921/plib_sercom5_usart.o
                0x0000000000000de4                SERCOM5_USART_Read

.text.SERCOM3_USART_Read%39
                0x0000000000000ea8       0xc4
 .text.SERCOM3_USART_Read
                0x0000000000000ea8       0xc4 build/default/production/_ext/504274921/plib_sercom3_usart.o
                0x0000000000000ea8                SERCOM3_USART_Read

.dinit%40       0x0000000000000f6c       0xc0
 .dinit         0x0000000000000f6c       0xc0 data_init

.text.__pop_int%41
                0x000000000000102c       0xbe
 .text.__pop_int
                0x000000000000102c       0xbe c:/program files/microchip/xc32/v4.45/bin/bin/../../lib/gcc/pic32c/8.3.1/../../../../pic32c/lib/thumb/v6-m/nofp\libc-musl.a(__pop_int.o)
                0x000000000000102c                __pop_int_needed
                0x000000000000102c                __pop_int

.text.SERCOM5_USART_TxPushByte%42
                0x00000000000010ec       0xb4
 .text.SERCOM5_USART_TxPushByte
                0x00000000000010ec       0xb4 build/default/production/_ext/504274921/plib_sercom5_usart.o

.text.SERCOM3_USART_TxPushByte%43
                0x00000000000011a0       0xb4
 .text.SERCOM3_USART_TxPushByte
                0x00000000000011a0       0xb4 build/default/production/_ext/504274921/plib_sercom3_usart.o

.text.__fmt_d%44
                0x0000000000001254       0xb2
 .text.__fmt_d  0x0000000000001254       0xb2 c:/program files/microchip/xc32/v4.45/bin/bin/../../lib/gcc/pic32c/8.3.1/../../../../pic32c/lib/thumb/v6-m/nofp\libc-musl.a(__fmt_d.o)
                0x0000000000001254                __fmt_d
                0x0000000000001254                __fmt_d_needed

.text.main%45   0x0000000000001308       0xb0
 .text.main     0x0000000000001308       0xb0 build/default/production/_ext/1360937237/main.o
                0x0000000000001308                main

.text.SERCOM5_USART_TxPullByte%46
                0x00000000000013b8       0xac
 .text.SERCOM5_USART_TxPullByte
                0x00000000000013b8       0xac build/default/production/_ext/504274921/plib_sercom5_usart.o

.text.SERCOM5_USART_Write%47
                0x0000000000001464       0xac
 .text.SERCOM5_USART_Write
                0x0000000000001464       0xac build/default/production/_ext/504274921/plib_sercom5_usart.o
                0x0000000000001464                SERCOM5_USART_Write

.text.SERCOM3_USART_TxPullByte%48
                0x0000000000001510       0xac
 .text.SERCOM3_USART_TxPullByte
                0x0000000000001510       0xac build/default/production/_ext/504274921/plib_sercom3_usart.o

.text.SERCOM3_USART_Write%49
                0x00000000000015bc       0xac
 .text.SERCOM3_USART_Write
                0x00000000000015bc       0xac build/default/production/_ext/504274921/plib_sercom3_usart.o
                0x00000000000015bc                SERCOM3_USART_Write

.text.LEDTask%50
                0x0000000000001668       0xac
 .text.LEDTask  0x0000000000001668       0xac build/default/production/LEDTasks.o
                0x0000000000001668                LEDTask

.text.AppTask%51
                0x0000000000001714       0x98
 .text.AppTask  0x0000000000001714       0x98 build/default/production/AppTasks.o
                0x0000000000001714                AppTask

.text.DFLL_Initialize%52
                0x00000000000017ac       0x80
 .text.DFLL_Initialize
                0x00000000000017ac       0x80 build/default/production/_ext/1984496892/plib_clock.o

.text.__pad%53  0x000000000000182c       0x7a
 .text.__pad    0x000000000000182c       0x7a c:/program files/microchip/xc32/v4.45/bin/bin/../../lib/gcc/pic32c/8.3.1/../../../../pic32c/lib/thumb/v6-m/nofp\libc-musl.a(__printf_core.o)
                0x000000000000182c                __pad

.text.SYSTICK_DelayMs%54
                0x00000000000018a8       0x78
 .text.SYSTICK_DelayMs
                0x00000000000018a8       0x78 build/default/production/_ext/1827571544/plib_systick.o
                0x00000000000018a8                SYSTICK_DelayMs

.text.__cvt_u%55
                0x0000000000001920       0x76
 .text.__cvt_u  0x0000000000001920       0x76 c:/program files/microchip/xc32/v4.45/bin/bin/../../lib/gcc/pic32c/8.3.1/../../../../pic32c/lib/thumb/v6-m/nofp\libc-musl.a(__cvt_u.o)
                0x0000000000001920                __cvt_u

.text.SERCOM5_USART_ReadNotificationSend%56
                0x0000000000001998       0x70
 .text.SERCOM5_USART_ReadNotificationSend
                0x0000000000001998       0x70 build/default/production/_ext/504274921/plib_sercom5_usart.o

.text.SERCOM3_USART_ReadNotificationSend%57
                0x0000000000001a08       0x70
 .text.SERCOM3_USART_ReadNotificationSend
                0x0000000000001a08       0x70 build/default/production/_ext/504274921/plib_sercom3_usart.o

.text.SERCOM5_USART_SendWriteNotification%58
                0x0000000000001a78       0x6c
 .text.SERCOM5_USART_SendWriteNotification
                0x0000000000001a78       0x6c build/default/production/_ext/504274921/plib_sercom5_usart.o

.text.SERCOM3_USART_SendWriteNotification%59
                0x0000000000001ae4       0x6c
 .text.SERCOM3_USART_SendWriteNotification
                0x0000000000001ae4       0x6c build/default/production/_ext/504274921/plib_sercom3_usart.o

.text.__pop_ptr%60
                0x0000000000001b50       0x68
 .text.__pop_ptr
                0x0000000000001b50       0x68 c:/program files/microchip/xc32/v4.45/bin/bin/../../lib/gcc/pic32c/8.3.1/../../../../pic32c/lib/thumb/v6-m/nofp\libc-musl.a(__pop_ptr.o)
                0x0000000000001b50                __pop_ptr
                0x0000000000001b50                __pop_ptr_needed

.text.CLOCK_Initialize%61
                0x0000000000001bb8       0x64
 .text.CLOCK_Initialize
                0x0000000000001bb8       0x64 build/default/production/_ext/1984496892/plib_clock.o
                0x0000000000001bb8                CLOCK_Initialize

.text.InitRN%62
                0x0000000000001c1c       0x64
 .text.InitRN   0x0000000000001c1c       0x64 build/default/production/_ext/1360937237/main.o
                0x0000000000001c1c                InitRN

.text.SERCOM5_USART_ISR_TX_Handler%63
                0x0000000000001c80       0x60
 .text.SERCOM5_USART_ISR_TX_Handler
                0x0000000000001c80       0x60 build/default/production/_ext/504274921/plib_sercom5_usart.o

.text.SERCOM3_USART_ISR_TX_Handler%64
                0x0000000000001ce0       0x60
 .text.SERCOM3_USART_ISR_TX_Handler
                0x0000000000001ce0       0x60 build/default/production/_ext/504274921/plib_sercom3_usart.o

.text.__libc_start_init%65
                0x0000000000001d40       0x5c
 .text.__libc_start_init
                0x0000000000001d40       0x5c c:/program files/microchip/xc32/v4.45/bin/bin/../../lib/gcc/pic32c/8.3.1/../../../../pic32c/lib/thumb/v6-m/nofp\libc-musl.a(__libc_start_main.o)
                0x0000000000001d40                __libc_init_array

.text.TC4_TimerInitialize%66
                0x0000000000001d9c       0x58
 .text.TC4_TimerInitialize
                0x0000000000001d9c       0x58 build/default/production/_ext/829342655/plib_tc4.o
                0x0000000000001d9c                TC4_TimerInitialize

.text.TC3_TimerInitialize%67
                0x0000000000001df4       0x58
 .text.TC3_TimerInitialize
                0x0000000000001df4       0x58 build/default/production/_ext/829342655/plib_tc3.o
                0x0000000000001df4                TC3_TimerInitialize

.text.mySercom3%68
                0x0000000000001e4c       0x58
 .text.mySercom3
                0x0000000000001e4c       0x58 build/default/production/_ext/1360937237/main.o
                0x0000000000001e4c                mySercom3

.text.mySercom5%69
                0x0000000000001ea4       0x58
 .text.mySercom5
                0x0000000000001ea4       0x58 build/default/production/_ext/1360937237/main.o
                0x0000000000001ea4                mySercom5

.text.SERCOM5_USART_ISR_ERR_Handler%70
                0x0000000000001efc       0x54
 .text.SERCOM5_USART_ISR_ERR_Handler
                0x0000000000001efc       0x54 build/default/production/_ext/504274921/plib_sercom5_usart.o

.text.SERCOM3_USART_ISR_ERR_Handler%71
                0x0000000000001f50       0x54
 .text.SERCOM3_USART_ISR_ERR_Handler
                0x0000000000001f50       0x54 build/default/production/_ext/504274921/plib_sercom3_usart.o

.text.__vsnprintf%72
                0x0000000000001fa4       0x50
 .text.__vsnprintf
                0x0000000000001fa4       0x50 c:/program files/microchip/xc32/v4.45/bin/bin/../../lib/gcc/pic32c/8.3.1/../../../../pic32c/lib/thumb/v6-m/nofp\libc-musl.a(__int_vsnprintf.o)
                0x0000000000001fa4                __vsnprintf

.text%73        0x0000000000001ff4       0x48
 .text          0x0000000000001ff4       0x48 c:/program files/microchip/xc32/v4.45/bin/bin/../../lib/gcc/pic32c/8.3.1/thumb/v6-m/nofp/crtbegin.o

.text.NVIC_Initialize%74
                0x000000000000203c       0x48
 .text.NVIC_Initialize
                0x000000000000203c       0x48 build/default/production/_ext/1865468468/plib_nvic.o
                0x000000000000203c                NVIC_Initialize

.text.Reset_Handler%75
                0x0000000000002084       0x48
 .text.Reset_Handler
                0x0000000000002084       0x48 build/default/production/_ext/1171490990/startup_xc32.o
                0x0000000000002084                Reset_Handler

.text.SERCOM5_USART_ReadNotificationEnable%76
                0x00000000000020cc       0x44
 .text.SERCOM5_USART_ReadNotificationEnable
                0x00000000000020cc       0x44 build/default/production/_ext/504274921/plib_sercom5_usart.o
                0x00000000000020cc                SERCOM5_USART_ReadNotificationEnable

.text.SERCOM3_USART_ReadNotificationEnable%77
                0x0000000000002110       0x44
 .text.SERCOM3_USART_ReadNotificationEnable
                0x0000000000002110       0x44 build/default/production/_ext/504274921/plib_sercom3_usart.o
                0x0000000000002110                SERCOM3_USART_ReadNotificationEnable

.text.SYS_Initialize%78
                0x0000000000002154       0x44
 .text.SYS_Initialize
                0x0000000000002154       0x44 build/default/production/_ext/1171490990/initialization.o
                0x0000000000002154                SYS_Initialize

.text.SERCOM5_USART_ErrorClear%79
                0x0000000000002198       0x40
 .text.SERCOM5_USART_ErrorClear
                0x0000000000002198       0x40 build/default/production/_ext/504274921/plib_sercom5_usart.o

.text.SERCOM5_USART_ReadCountGet%80
                0x00000000000021d8       0x40
 .text.SERCOM5_USART_ReadCountGet
                0x00000000000021d8       0x40 build/default/production/_ext/504274921/plib_sercom5_usart.o
                0x00000000000021d8                SERCOM5_USART_ReadCountGet

.text.SERCOM5_USART_WritePendingBytesGet%81
                0x0000000000002218       0x40
 .text.SERCOM5_USART_WritePendingBytesGet
                0x0000000000002218       0x40 build/default/production/_ext/504274921/plib_sercom5_usart.o

.text.SERCOM3_USART_ErrorClear%82
                0x0000000000002258       0x40
 .text.SERCOM3_USART_ErrorClear
                0x0000000000002258       0x40 build/default/production/_ext/504274921/plib_sercom3_usart.o

.text.SERCOM3_USART_ReadCountGet%83
                0x0000000000002298       0x40
 .text.SERCOM3_USART_ReadCountGet
                0x0000000000002298       0x40 build/default/production/_ext/504274921/plib_sercom3_usart.o
                0x0000000000002298                SERCOM3_USART_ReadCountGet

.text.SERCOM3_USART_WritePendingBytesGet%84
                0x00000000000022d8       0x40
 .text.SERCOM3_USART_WritePendingBytesGet
                0x00000000000022d8       0x40 build/default/production/_ext/504274921/plib_sercom3_usart.o

.text.TC4_TimerInterruptHandler%85
                0x0000000000002318       0x40
 .text.TC4_TimerInterruptHandler
                0x0000000000002318       0x40 build/default/production/_ext/829342655/plib_tc4.o
                0x0000000000002318                TC4_TimerInterruptHandler

.text.TC3_TimerInterruptHandler%86
                0x0000000000002358       0x40
 .text.TC3_TimerInterruptHandler
                0x0000000000002358       0x40 build/default/production/_ext/829342655/plib_tc3.o
                0x0000000000002358                TC3_TimerInterruptHandler

.text.atoi%87   0x0000000000002398       0x40
 .text.atoi     0x0000000000002398       0x40 c:/program files/microchip/xc32/v4.45/bin/bin/../../lib/gcc/pic32c/8.3.1/../../../../pic32c/lib/thumb/v6-m/nofp\libc-musl.a(atoi.o)
                0x0000000000002398                atoi

.text%88        0x00000000000023d8       0x40
 .text          0x00000000000023d8       0x40 c:/program files/microchip/xc32/v4.45/bin/bin/../../lib/gcc/pic32c/8.3.1/thumb/v6-m/nofp\libgcc.a(_aeabi_uldivmod.o)
                0x00000000000023d8                __aeabi_uldivmod

.text.SERCOM3_USART_WriteNotificationEnable%89
                0x0000000000002418       0x3c
 .text.SERCOM3_USART_WriteNotificationEnable
                0x0000000000002418       0x3c build/default/production/_ext/504274921/plib_sercom3_usart.o
                0x0000000000002418                SERCOM3_USART_WriteNotificationEnable

.text%90        0x0000000000002454       0x3c
 .text          0x0000000000002454       0x3c c:/program files/microchip/xc32/v4.45/bin/bin/../../lib/gcc/pic32c/8.3.1/thumb/v6-m/nofp\libgcc.a(_clzsi2.o)
                0x0000000000002454                __clzsi2

.text.ADC_ConversionStatusGet%91
                0x0000000000002490       0x38
 .text.ADC_ConversionStatusGet
                0x0000000000002490       0x38 build/default/production/_ext/60163342/plib_adc.o
                0x0000000000002490                ADC_ConversionStatusGet

.text.__NVIC_EnableIRQ%92
                0x00000000000024c8       0x34
 .text.__NVIC_EnableIRQ
                0x00000000000024c8       0x34 build/default/production/_ext/1865468468/plib_nvic.o

.text.SERCOM5_USART_ISR_RX_Handler%93
                0x00000000000024fc       0x34
 .text.SERCOM5_USART_ISR_RX_Handler
                0x00000000000024fc       0x34 build/default/production/_ext/504274921/plib_sercom5_usart.o

.text.SERCOM3_USART_ISR_RX_Handler%94
                0x0000000000002530       0x34
 .text.SERCOM3_USART_ISR_RX_Handler
                0x0000000000002530       0x34 build/default/production/_ext/504274921/plib_sercom3_usart.o

.text.__pic32c_data_initialization%95
                0x0000000000002564       0x34
 .text.__pic32c_data_initialization
                0x0000000000002564       0x34 c:/program files/microchip/xc32/v4.45/bin/bin/../../lib/gcc/pic32c/8.3.1/../../../../pic32c/lib/thumb/v6-m/nofp\libpic32c.a(data_init.o)
                0x0000000000002564                __pic32c_data_initialization

.text.__fmt_state%96
                0x0000000000002598       0x34
 .text.__fmt_state
                0x0000000000002598       0x34 c:/program files/microchip/xc32/v4.45/bin/bin/../../lib/gcc/pic32c/8.3.1/../../../../pic32c/lib/thumb/v6-m/nofp\libc-musl.a(__printf_core.o)
                0x0000000000002598                __fmt_state

.text.ADC_Enable%97
                0x00000000000025cc       0x2c
 .text.ADC_Enable
                0x00000000000025cc       0x2c build/default/production/_ext/60163342/plib_adc.o
                0x00000000000025cc                ADC_Enable

.text.ADC_ConversionStart%98
                0x00000000000025f8       0x2c
 .text.ADC_ConversionStart
                0x00000000000025f8       0x2c build/default/production/_ext/60163342/plib_adc.o
                0x00000000000025f8                ADC_ConversionStart

.text.GCLK0_Initialize%99
                0x0000000000002624       0x2c
 .text.GCLK0_Initialize
                0x0000000000002624       0x2c build/default/production/_ext/1984496892/plib_clock.o

.text.SYSTICK_TimerInitialize%100
                0x0000000000002650       0x2c
 .text.SYSTICK_TimerInitialize
                0x0000000000002650       0x2c build/default/production/_ext/1827571544/plib_systick.o
                0x0000000000002650                SYSTICK_TimerInitialize

.text.TC4_TimerStart%101
                0x000000000000267c       0x2c
 .text.TC4_TimerStart
                0x000000000000267c       0x2c build/default/production/_ext/829342655/plib_tc4.o
                0x000000000000267c                TC4_TimerStart

.text.TC4_TimerStop%102
                0x00000000000026a8       0x2c
 .text.TC4_TimerStop
                0x00000000000026a8       0x2c build/default/production/_ext/829342655/plib_tc4.o
                0x00000000000026a8                TC4_TimerStop

.text.TC3_TimerStart%103
                0x00000000000026d4       0x2c
 .text.TC3_TimerStart
                0x00000000000026d4       0x2c build/default/production/_ext/829342655/plib_tc3.o
                0x00000000000026d4                TC3_TimerStart

.text.__string_out%104
                0x0000000000002700       0x2a
 .text.__string_out
                0x0000000000002700       0x2a c:/program files/microchip/xc32/v4.45/bin/bin/../../lib/gcc/pic32c/8.3.1/../../../../pic32c/lib/thumb/v6-m/nofp\libc-musl.a(__printf_core.o)
                0x0000000000002700                __out

.text.__pop_float%105
                0x000000000000272a       0x2a
 .text.__pop_float
                0x000000000000272a       0x2a c:/program files/microchip/xc32/v4.45/bin/bin/../../lib/gcc/pic32c/8.3.1/../../../../pic32c/lib/thumb/v6-m/nofp\libc-musl.a(__pop_float.o)
                0x000000000000272a                __pop_float_needed
                0x000000000000272a                __pop_float

.text.SERCOM5_USART_ReadCallbackRegister%106
                0x0000000000002754       0x24
 .text.SERCOM5_USART_ReadCallbackRegister
                0x0000000000002754       0x24 build/default/production/_ext/504274921/plib_sercom5_usart.o
                0x0000000000002754                SERCOM5_USART_ReadCallbackRegister

.text.SERCOM3_USART_ReadCallbackRegister%107
                0x0000000000002778       0x24
 .text.SERCOM3_USART_ReadCallbackRegister
                0x0000000000002778       0x24 build/default/production/_ext/504274921/plib_sercom3_usart.o
                0x0000000000002778                SERCOM3_USART_ReadCallbackRegister

.text.TC4_TimerCallbackRegister%108
                0x000000000000279c       0x24
 .text.TC4_TimerCallbackRegister
                0x000000000000279c       0x24 build/default/production/_ext/829342655/plib_tc4.o
                0x000000000000279c                TC4_TimerCallbackRegister

.text.TC3_TimerCallbackRegister%109
                0x00000000000027c0       0x24
 .text.TC3_TimerCallbackRegister
                0x00000000000027c0       0x24 build/default/production/_ext/829342655/plib_tc3.o
                0x00000000000027c0                TC3_TimerCallbackRegister

.text.SERCOM5_USART_ReadThresholdSet%110
                0x00000000000027e4       0x20
 .text.SERCOM5_USART_ReadThresholdSet
                0x00000000000027e4       0x20 build/default/production/_ext/504274921/plib_sercom5_usart.o
                0x00000000000027e4                SERCOM5_USART_ReadThresholdSet

.text.SERCOM3_USART_ReadThresholdSet%111
                0x0000000000002804       0x20
 .text.SERCOM3_USART_ReadThresholdSet
                0x0000000000002804       0x20 build/default/production/_ext/504274921/plib_sercom3_usart.o
                0x0000000000002804                SERCOM3_USART_ReadThresholdSet

.text.SERCOM3_USART_WriteThresholdSet%112
                0x0000000000002824       0x20
 .text.SERCOM3_USART_WriteThresholdSet
                0x0000000000002824       0x20 build/default/production/_ext/504274921/plib_sercom3_usart.o
                0x0000000000002824                SERCOM3_USART_WriteThresholdSet

.text.SYSTICK_TimerStart%113
                0x0000000000002844       0x20
 .text.SYSTICK_TimerStart
                0x0000000000002844       0x20 build/default/production/_ext/1827571544/plib_systick.o
                0x0000000000002844                SYSTICK_TimerStart

.text.sampleTimer%114
                0x0000000000002864       0x20
 .text.sampleTimer
                0x0000000000002864       0x20 build/default/production/AppTasks.o
                0x0000000000002864                sampleTimer

.text.blinkTimer%115
                0x0000000000002884       0x20
 .text.blinkTimer
                0x0000000000002884       0x20 build/default/production/LEDTasks.o
                0x0000000000002884                blinkTimer

.text.__dinit_copy%116
                0x00000000000028a4       0x1e
 .text.__dinit_copy
                0x00000000000028a4       0x1e c:/program files/microchip/xc32/v4.45/bin/bin/../../lib/gcc/pic32c/8.3.1/../../../../pic32c/lib/thumb/v6-m/nofp\libpic32c.a(pic32_data_init_copy.o)
                0x00000000000028a4                __dinit_copy_needed
                0x00000000000028a4                __dinit_copy

.text.SERCOM5_USART_WriteFreeBufferCountGet%117
                0x00000000000028c4       0x1c
 .text.SERCOM5_USART_WriteFreeBufferCountGet
                0x00000000000028c4       0x1c build/default/production/_ext/504274921/plib_sercom5_usart.o
                0x00000000000028c4                SERCOM5_USART_WriteFreeBufferCountGet

.text.SERCOM3_USART_WriteFreeBufferCountGet%118
                0x00000000000028e0       0x1c
 .text.SERCOM3_USART_WriteFreeBufferCountGet
                0x00000000000028e0       0x1c build/default/production/_ext/504274921/plib_sercom3_usart.o
                0x00000000000028e0                SERCOM3_USART_WriteFreeBufferCountGet

.text.SERCOM5_USART_WriteCountGet%119
                0x00000000000028fc       0x18
 .text.SERCOM5_USART_WriteCountGet
                0x00000000000028fc       0x18 build/default/production/_ext/504274921/plib_sercom5_usart.o
                0x00000000000028fc                SERCOM5_USART_WriteCountGet

.text.SERCOM3_USART_WriteCountGet%120
                0x0000000000002914       0x18
 .text.SERCOM3_USART_WriteCountGet
                0x0000000000002914       0x18 build/default/production/_ext/504274921/plib_sercom3_usart.o
                0x0000000000002914                SERCOM3_USART_WriteCountGet

.text.strlen%121
                0x000000000000292c       0x18
 .text.strlen   0x000000000000292c       0x18 c:/program files/microchip/xc32/v4.45/bin/bin/../../lib/gcc/pic32c/8.3.1/../../../../pic32c/lib/thumb/v6-m/nofp\libc-size-musl.a(strlen.o)
                0x000000000000292c                strlen

.text.__vfprintf%122
                0x0000000000002944       0x18
 .text.__vfprintf
                0x0000000000002944       0x18 c:/program files/microchip/xc32/v4.45/bin/bin/../../lib/gcc/pic32c/8.3.1/../../../../pic32c/lib/thumb/v6-m/nofp\libc-musl.a(__int_vfprintf.o)
                0x0000000000002944                __vfprintf

.text%123       0x000000000000295c       0x18
 .text          0x000000000000295c       0x18 c:/program files/microchip/xc32/v4.45/bin/bin/../../lib/gcc/pic32c/8.3.1/thumb/v6-m/nofp\libgcc.a(_lshrdi3.o)
                0x000000000000295c                __lshrdi3
                0x000000000000295c                __aeabi_llsr

.text%124       0x0000000000002974       0x18
 .text          0x0000000000002974       0x18 c:/program files/microchip/xc32/v4.45/bin/bin/../../lib/gcc/pic32c/8.3.1/thumb/v6-m/nofp\libgcc.a(_ashldi3.o)
                0x0000000000002974                __aeabi_llsl
                0x0000000000002974                __ashldi3

.text%125       0x000000000000298c       0x18
 .text          0x000000000000298c       0x18 c:/program files/microchip/xc32/v4.45/bin/bin/../../lib/gcc/pic32c/8.3.1/thumb/v6-m/nofp\libgcc.a(_clzdi2.o)
                0x000000000000298c                __clzdi2

.text.__wrap_sprintf%126
                0x00000000000029a4       0x16
 .text.__wrap_sprintf
                0x00000000000029a4       0x16 c:/program files/microchip/xc32/v4.45/bin/bin/../../lib/gcc/pic32c/8.3.1/../../../../pic32c/lib/thumb/v6-m/nofp\libc-musl.a(__sio_sprintf_dn.o)
                0x00000000000029a4                _dsprintf_dn
                0x00000000000029a4                _sprintf_dn

.rodata%127     0x00000000000029ba       0x16
 .rodata        0x00000000000029ba       0x16 c:/program files/microchip/xc32/v4.45/bin/bin/../../lib/gcc/pic32c/8.3.1/../../../../pic32c/lib/thumb/v6-m/nofp\libc-musl.a(__printf_core.o)

.text.ADC_ConversionResultGet%128
                0x00000000000029d0       0x14
 .text.ADC_ConversionResultGet
                0x00000000000029d0       0x14 build/default/production/_ext/60163342/plib_adc.o
                0x00000000000029d0                ADC_ConversionResultGet

.text.SYSCTRL_Initialize%129
                0x00000000000029e4       0x14
 .text.SYSCTRL_Initialize
                0x00000000000029e4       0x14 build/default/production/_ext/1984496892/plib_clock.o

.text.NVMCTRL_Initialize%130
                0x00000000000029f8       0x14
 .text.NVMCTRL_Initialize
                0x00000000000029f8       0x14 build/default/production/_ext/1593096446/plib_nvmctrl.o
                0x00000000000029f8                NVMCTRL_Initialize

.rodata%131     0x0000000000002a0c       0x14
 .rodata        0x0000000000002a0c       0x14 c:/program files/microchip/xc32/v4.45/bin/bin/../../lib/gcc/pic32c/8.3.1/../../../../pic32c/lib/thumb/v6-m/nofp\libpic32c.a(data_init.o)

.text.memcpy%132
                0x0000000000002a20       0x14
 .text.memcpy   0x0000000000002a20       0x14 c:/program files/microchip/xc32/v4.45/bin/bin/../../lib/gcc/pic32c/8.3.1/../../../../pic32c/lib/thumb/v6-m/nofp\libc-size-musl.a(memcpy.o)
                0x0000000000002a20                memcpy

.text.__vsprintf%133
                0x0000000000002a34       0x14
 .text.__vsprintf
                0x0000000000002a34       0x14 c:/program files/microchip/xc32/v4.45/bin/bin/../../lib/gcc/pic32c/8.3.1/../../../../pic32c/lib/thumb/v6-m/nofp\libc-musl.a(__int_vsprintf.o)
                0x0000000000002a34                __vsprintf

.text.memset%134
                0x0000000000002a48       0x14
 .text.memset   0x0000000000002a48       0x14 c:/program files/microchip/xc32/v4.45/bin/bin/../../lib/gcc/pic32c/8.3.1/../../../../pic32c/lib/thumb/v6-m/nofp\libc-size-musl.a(memset.o)
                0x0000000000002a48                memset

.text.__dinit_clear%135
                0x0000000000002a5c       0x12
 .text.__dinit_clear
                0x0000000000002a5c       0x12 c:/program files/microchip/xc32/v4.45/bin/bin/../../lib/gcc/pic32c/8.3.1/../../../../pic32c/lib/thumb/v6-m/nofp\libpic32c.a(pic32_data_init_clear.o)
                0x0000000000002a5c                __dinit_clear
                0x0000000000002a5c                __dinit_clear_needed

.text.tolower%136
                0x0000000000002a6e        0xe
 .text.tolower  0x0000000000002a6e        0xe c:/program files/microchip/xc32/v4.45/bin/bin/../../lib/gcc/pic32c/8.3.1/../../../../pic32c/lib/thumb/v6-m/nofp\libc-musl.a(tolower.o)
                0x0000000000002a6e                tolower

.rodata%137     0x0000000000002a7c        0x8
 .rodata        0x0000000000002a7c        0x8 build/default/production/AppTasks.o

.rodata.str1.1%138
                0x0000000000002a84        0x8
 .rodata.str1.1
                0x0000000000002a84        0x8 c:/program files/microchip/xc32/v4.45/bin/bin/../../lib/gcc/pic32c/8.3.1/../../../../pic32c/lib/thumb/v6-m/nofp\libc-musl.a(__printf_core.o)

.text.NonMaskableInt_Handler%139
                0x0000000000002a8c        0x6
 .text.NonMaskableInt_Handler
                0x0000000000002a8c        0x6 build/default/production/_ext/1171490990/exceptions.o
                0x0000000000002a8c                NonMaskableInt_Handler

.text.HardFault_Handler%140
                0x0000000000002a92        0x6
 .text.HardFault_Handler
                0x0000000000002a92        0x6 build/default/production/_ext/1171490990/exceptions.o
                0x0000000000002a92                HardFault_Handler

.text.__dummy_decompress%141
                0x0000000000002a98        0x4
 .text.__dummy_decompress
                0x0000000000002a98        0x4 c:/program files/microchip/xc32/v4.45/bin/bin/../../lib/gcc/pic32c/8.3.1/../../../../pic32c/lib/thumb/v6-m/nofp\libpic32c.a(data_init.o)
                0x0000000000002a98                __dinit_decompress
                0x0000000000002a98                __dinit_copy_val_data
                0x0000000000002a98                __dinit_copy_emb

.text.__dummy_fmt3%142
                0x0000000000002a9c        0x4
 .text.__dummy_fmt3
                0x0000000000002a9c        0x4 c:/program files/microchip/xc32/v4.45/bin/bin/../../lib/gcc/pic32c/8.3.1/../../../../pic32c/lib/thumb/v6-m/nofp\libc-musl.a(__printf_core.o)
                0x0000000000002a9c                __fmt_o
                0x0000000000002a9c                __fmt_u

.text.__dummy_fmt4%143
                0x0000000000002aa0        0x4
 .text.__dummy_fmt4
                0x0000000000002aa0        0x4 c:/program files/microchip/xc32/v4.45/bin/bin/../../lib/gcc/pic32c/8.3.1/../../../../pic32c/lib/thumb/v6-m/nofp\libc-musl.a(__printf_core.o)
                0x0000000000002aa0                __fmt_fp
                0x0000000000002aa0                __fmt_x
                0x0000000000002aa0                __fmt_a

.text.__dummy_fmts%144
                0x0000000000002aa4        0x4
 .text.__dummy_fmts
                0x0000000000002aa4        0x4 c:/program files/microchip/xc32/v4.45/bin/bin/../../lib/gcc/pic32c/8.3.1/../../../../pic32c/lib/thumb/v6-m/nofp\libc-musl.a(__printf_core.o)
                0x0000000000002aa4                __fmt_s

.text%145       0x0000000000002aa8        0x4
 .text          0x0000000000002aa8        0x4 c:/program files/microchip/xc32/v4.45/bin/bin/../../lib/gcc/pic32c/8.3.1/thumb/v6-m/nofp\libgcc.a(_dvmd_tls.o)
                0x0000000000002aa8                __aeabi_idiv0
                0x0000000000002aa8                __aeabi_ldiv0

.text.Dummy_App_Func%146
                0x00000000000009d2        0x2
 .text.Dummy_App_Func
                0x00000000000009d2        0x2 build/default/production/_ext/1171490990/startup_xc32.o
                0x00000000000009d2                _on_reset
                0x00000000000009d2                _on_bootstrap
                0x00000000000009d2                __xc32_on_reset
                0x00000000000009d2                Dummy_App_Func
                0x00000000000009d2                __xc32_on_bootstrap

.text.Dummy_Handler%147
                0x00000000000010ea        0x2
 .text.Dummy_Handler
                0x00000000000010ea        0x2 build/default/production/_ext/1171490990/interrupts.o
                0x00000000000010ea                SVCall_Handler
                0x00000000000010ea                DMAC_Handler
                0x00000000000010ea                AC_Handler
                0x00000000000010ea                SysTick_Handler
                0x00000000000010ea                PendSV_Handler
                0x00000000000010ea                SERCOM1_Handler
                0x00000000000010ea                ADC_Handler
                0x00000000000010ea                TCC1_Handler
                0x00000000000010ea                SERCOM2_Handler
                0x00000000000010ea                TCC0_Handler
                0x00000000000010ea                RTC_Handler
                0x00000000000010ea                EIC_Handler
                0x00000000000010ea                WDT_Handler
                0x00000000000010ea                USB_Handler
                0x00000000000010ea                Dummy_Handler
                0x00000000000010ea                PM_Handler
                0x00000000000010ea                TCC3_Handler
                0x00000000000010ea                TCC2_Handler
                0x00000000000010ea                EVSYS_Handler
                0x00000000000010ea                SERCOM4_Handler
                0x00000000000010ea                I2S_Handler
                0x00000000000010ea                NVMCTRL_Handler
                0x00000000000010ea                SERCOM0_Handler
                0x00000000000010ea                DAC_Handler
                0x00000000000010ea                PTC_Handler
                0x00000000000010ea                TC5_Handler
                0x00000000000010ea                SYSCTRL_Handler

.text.__dummy%148
                0x0000000000001306        0x2
 .text.__dummy  0x0000000000001306        0x2 c:/program files/microchip/xc32/v4.45/bin/bin/../../lib/gcc/pic32c/8.3.1/../../../../pic32c/lib/thumb/v6-m/nofp\libc-musl.a(__libc_start_main.o)
                0x0000000000001306                __init_stdio
                0x0000000000001306                __init_host
